
Optional file libmchp_peripheral.a not found

Optional file libmchp_peripheral_32MX795F512L.a not found
Archive member included because of file (symbol)

/home/john/MPLAB-X/XC32_Compiler/bin/bin/../../lib/gcc/pic32mx/4.8.3/../../../../pic32mx/lib/libpic32.a(memcpy.o)
                              build/default/debug/_ext/1458882252/queue.o (memcpy)
/home/john/MPLAB-X/XC32_Compiler/bin/bin/../../lib/gcc/pic32mx/4.8.3/../../../../pic32mx/lib/libpic32.a(memset.o)
                              build/default/debug/_ext/1458882252/tasks.o (memset)
/home/john/MPLAB-X/XC32_Compiler/bin/bin/../../lib/gcc/pic32mx/4.8.3/../../../../pic32mx/lib/libpic32.a(strcpy.o)
                              build/default/debug/_ext/1952159421/sys_debug.o (strcpy)
/home/john/MPLAB-X/XC32_Compiler/bin/bin/../../lib/gcc/pic32mx/4.8.3/../../../../pic32mx/lib/libpic32.a(strlen.o)
                              build/default/debug/_ext/207392127/sys_console_appio.o (strlen)
/home/john/MPLAB-X/XC32_Compiler/bin/bin/../../lib/gcc/pic32mx/4.8.3/../../../../pic32mx/lib/libpic32.a(default-bootstrap-exception-handler.o)
                              /home/john/MPLAB-X/XC32_Compiler/bin/bin/../../lib/gcc/pic32mx/4.8.3/../../../../pic32mx/lib/./proc/32MX795F512L/crt0_mips32r2.o (_bootstrap_exception_handler)
/home/john/MPLAB-X/XC32_Compiler/bin/bin/../../lib/gcc/pic32mx/4.8.3/../../../../pic32mx/lib/libpic32.a(default-on-reset.o)
                              /home/john/MPLAB-X/XC32_Compiler/bin/bin/../../lib/gcc/pic32mx/4.8.3/../../../../pic32mx/lib/./proc/32MX795F512L/crt0_mips32r2.o (_on_reset)
/home/john/MPLAB-X/XC32_Compiler/bin/bin/../../lib/gcc/pic32mx/4.8.3/../../../../pic32mx/lib/libpic32.a(default-on-bootstrap.o)
                              /home/john/MPLAB-X/XC32_Compiler/bin/bin/../../lib/gcc/pic32mx/4.8.3/../../../../pic32mx/lib/./proc/32MX795F512L/crt0_mips32r2.o (_on_bootstrap)
/home/john/MPLAB-X/XC32_Compiler/bin/bin/../../lib/gcc/pic32mx/4.8.3/../../../../pic32mx/lib/libpic32.a(default-nmi-handler.o)
                              /home/john/MPLAB-X/XC32_Compiler/bin/bin/../../lib/gcc/pic32mx/4.8.3/../../../../pic32mx/lib/./proc/32MX795F512L/crt0_mips32r2.o (_nmi_handler)
/home/john/MPLAB-X/XC32_Compiler/bin/bin/../../lib/gcc/pic32mx/4.8.3/../../../../pic32mx/lib/libpic32.a(general-exception.o)
                              /home/john/MPLAB-X/XC32_Compiler/bin/bin/../../lib/gcc/pic32mx/4.8.3/../../../../pic32mx/lib/./proc/32MX795F512L/crt0_mips32r2.o (_general_exception_context)
/home/john/MPLAB-X/XC32_Compiler/bin/bin/../../lib/gcc/pic32mx/4.8.3/../../../../pic32mx/lib/libpic32.a(vector0.o)
                              /home/john/MPLAB-X/XC32_Compiler/bin/bin/../../lib/gcc/pic32mx/4.8.3/../../../../pic32mx/lib/./proc/32MX795F512L/default_isr_vectors.o (__vector_dispatch_0)
/home/john/MPLAB-X/XC32_Compiler/bin/bin/../../lib/gcc/pic32mx/4.8.3/../../../../pic32mx/lib/libpic32.a(vector2.o)
                              /home/john/MPLAB-X/XC32_Compiler/bin/bin/../../lib/gcc/pic32mx/4.8.3/../../../../pic32mx/lib/./proc/32MX795F512L/default_isr_vectors.o (__vector_dispatch_2)
/home/john/MPLAB-X/XC32_Compiler/bin/bin/../../lib/gcc/pic32mx/4.8.3/../../../../pic32mx/lib/libpic32.a(vector3.o)
                              /home/john/MPLAB-X/XC32_Compiler/bin/bin/../../lib/gcc/pic32mx/4.8.3/../../../../pic32mx/lib/./proc/32MX795F512L/default_isr_vectors.o (__vector_dispatch_3)
/home/john/MPLAB-X/XC32_Compiler/bin/bin/../../lib/gcc/pic32mx/4.8.3/../../../../pic32mx/lib/libpic32.a(vector5.o)
                              /home/john/MPLAB-X/XC32_Compiler/bin/bin/../../lib/gcc/pic32mx/4.8.3/../../../../pic32mx/lib/./proc/32MX795F512L/default_isr_vectors.o (__vector_dispatch_5)
/home/john/MPLAB-X/XC32_Compiler/bin/bin/../../lib/gcc/pic32mx/4.8.3/../../../../pic32mx/lib/libpic32.a(vector6.o)
                              /home/john/MPLAB-X/XC32_Compiler/bin/bin/../../lib/gcc/pic32mx/4.8.3/../../../../pic32mx/lib/./proc/32MX795F512L/default_isr_vectors.o (__vector_dispatch_6)
/home/john/MPLAB-X/XC32_Compiler/bin/bin/../../lib/gcc/pic32mx/4.8.3/../../../../pic32mx/lib/libpic32.a(vector7.o)
                              /home/john/MPLAB-X/XC32_Compiler/bin/bin/../../lib/gcc/pic32mx/4.8.3/../../../../pic32mx/lib/./proc/32MX795F512L/default_isr_vectors.o (__vector_dispatch_7)
/home/john/MPLAB-X/XC32_Compiler/bin/bin/../../lib/gcc/pic32mx/4.8.3/../../../../pic32mx/lib/libpic32.a(vector8.o)
                              /home/john/MPLAB-X/XC32_Compiler/bin/bin/../../lib/gcc/pic32mx/4.8.3/../../../../pic32mx/lib/./proc/32MX795F512L/default_isr_vectors.o (__vector_dispatch_8)
/home/john/MPLAB-X/XC32_Compiler/bin/bin/../../lib/gcc/pic32mx/4.8.3/../../../../pic32mx/lib/libpic32.a(vector9.o)
                              /home/john/MPLAB-X/XC32_Compiler/bin/bin/../../lib/gcc/pic32mx/4.8.3/../../../../pic32mx/lib/./proc/32MX795F512L/default_isr_vectors.o (__vector_dispatch_9)
/home/john/MPLAB-X/XC32_Compiler/bin/bin/../../lib/gcc/pic32mx/4.8.3/../../../../pic32mx/lib/libpic32.a(vector10.o)
                              /home/john/MPLAB-X/XC32_Compiler/bin/bin/../../lib/gcc/pic32mx/4.8.3/../../../../pic32mx/lib/./proc/32MX795F512L/default_isr_vectors.o (__vector_dispatch_10)
/home/john/MPLAB-X/XC32_Compiler/bin/bin/../../lib/gcc/pic32mx/4.8.3/../../../../pic32mx/lib/libpic32.a(vector11.o)
                              /home/john/MPLAB-X/XC32_Compiler/bin/bin/../../lib/gcc/pic32mx/4.8.3/../../../../pic32mx/lib/./proc/32MX795F512L/default_isr_vectors.o (__vector_dispatch_11)
/home/john/MPLAB-X/XC32_Compiler/bin/bin/../../lib/gcc/pic32mx/4.8.3/../../../../pic32mx/lib/libpic32.a(vector12.o)
                              /home/john/MPLAB-X/XC32_Compiler/bin/bin/../../lib/gcc/pic32mx/4.8.3/../../../../pic32mx/lib/./proc/32MX795F512L/default_isr_vectors.o (__vector_dispatch_12)
/home/john/MPLAB-X/XC32_Compiler/bin/bin/../../lib/gcc/pic32mx/4.8.3/../../../../pic32mx/lib/libpic32.a(vector13.o)
                              /home/john/MPLAB-X/XC32_Compiler/bin/bin/../../lib/gcc/pic32mx/4.8.3/../../../../pic32mx/lib/./proc/32MX795F512L/default_isr_vectors.o (__vector_dispatch_13)
/home/john/MPLAB-X/XC32_Compiler/bin/bin/../../lib/gcc/pic32mx/4.8.3/../../../../pic32mx/lib/libpic32.a(vector14.o)
                              /home/john/MPLAB-X/XC32_Compiler/bin/bin/../../lib/gcc/pic32mx/4.8.3/../../../../pic32mx/lib/./proc/32MX795F512L/default_isr_vectors.o (__vector_dispatch_14)
/home/john/MPLAB-X/XC32_Compiler/bin/bin/../../lib/gcc/pic32mx/4.8.3/../../../../pic32mx/lib/libpic32.a(vector15.o)
                              /home/john/MPLAB-X/XC32_Compiler/bin/bin/../../lib/gcc/pic32mx/4.8.3/../../../../pic32mx/lib/./proc/32MX795F512L/default_isr_vectors.o (__vector_dispatch_15)
/home/john/MPLAB-X/XC32_Compiler/bin/bin/../../lib/gcc/pic32mx/4.8.3/../../../../pic32mx/lib/libpic32.a(vector16.o)
                              /home/john/MPLAB-X/XC32_Compiler/bin/bin/../../lib/gcc/pic32mx/4.8.3/../../../../pic32mx/lib/./proc/32MX795F512L/default_isr_vectors.o (__vector_dispatch_16)
/home/john/MPLAB-X/XC32_Compiler/bin/bin/../../lib/gcc/pic32mx/4.8.3/../../../../pic32mx/lib/libpic32.a(vector17.o)
                              /home/john/MPLAB-X/XC32_Compiler/bin/bin/../../lib/gcc/pic32mx/4.8.3/../../../../pic32mx/lib/./proc/32MX795F512L/default_isr_vectors.o (__vector_dispatch_17)
/home/john/MPLAB-X/XC32_Compiler/bin/bin/../../lib/gcc/pic32mx/4.8.3/../../../../pic32mx/lib/libpic32.a(vector18.o)
                              /home/john/MPLAB-X/XC32_Compiler/bin/bin/../../lib/gcc/pic32mx/4.8.3/../../../../pic32mx/lib/./proc/32MX795F512L/default_isr_vectors.o (__vector_dispatch_18)
/home/john/MPLAB-X/XC32_Compiler/bin/bin/../../lib/gcc/pic32mx/4.8.3/../../../../pic32mx/lib/libpic32.a(vector19.o)
                              /home/john/MPLAB-X/XC32_Compiler/bin/bin/../../lib/gcc/pic32mx/4.8.3/../../../../pic32mx/lib/./proc/32MX795F512L/default_isr_vectors.o (__vector_dispatch_19)
/home/john/MPLAB-X/XC32_Compiler/bin/bin/../../lib/gcc/pic32mx/4.8.3/../../../../pic32mx/lib/libpic32.a(vector20.o)
                              /home/john/MPLAB-X/XC32_Compiler/bin/bin/../../lib/gcc/pic32mx/4.8.3/../../../../pic32mx/lib/./proc/32MX795F512L/default_isr_vectors.o (__vector_dispatch_20)
/home/john/MPLAB-X/XC32_Compiler/bin/bin/../../lib/gcc/pic32mx/4.8.3/../../../../pic32mx/lib/libpic32.a(vector21.o)
                              /home/john/MPLAB-X/XC32_Compiler/bin/bin/../../lib/gcc/pic32mx/4.8.3/../../../../pic32mx/lib/./proc/32MX795F512L/default_isr_vectors.o (__vector_dispatch_21)
/home/john/MPLAB-X/XC32_Compiler/bin/bin/../../lib/gcc/pic32mx/4.8.3/../../../../pic32mx/lib/libpic32.a(vector22.o)
                              /home/john/MPLAB-X/XC32_Compiler/bin/bin/../../lib/gcc/pic32mx/4.8.3/../../../../pic32mx/lib/./proc/32MX795F512L/default_isr_vectors.o (__vector_dispatch_22)
/home/john/MPLAB-X/XC32_Compiler/bin/bin/../../lib/gcc/pic32mx/4.8.3/../../../../pic32mx/lib/libpic32.a(vector23.o)
                              /home/john/MPLAB-X/XC32_Compiler/bin/bin/../../lib/gcc/pic32mx/4.8.3/../../../../pic32mx/lib/./proc/32MX795F512L/default_isr_vectors.o (__vector_dispatch_23)
/home/john/MPLAB-X/XC32_Compiler/bin/bin/../../lib/gcc/pic32mx/4.8.3/../../../../pic32mx/lib/libpic32.a(vector25.o)
                              /home/john/MPLAB-X/XC32_Compiler/bin/bin/../../lib/gcc/pic32mx/4.8.3/../../../../pic32mx/lib/./proc/32MX795F512L/default_isr_vectors.o (__vector_dispatch_25)
/home/john/MPLAB-X/XC32_Compiler/bin/bin/../../lib/gcc/pic32mx/4.8.3/../../../../pic32mx/lib/libpic32.a(vector26.o)
                              /home/john/MPLAB-X/XC32_Compiler/bin/bin/../../lib/gcc/pic32mx/4.8.3/../../../../pic32mx/lib/./proc/32MX795F512L/default_isr_vectors.o (__vector_dispatch_26)
/home/john/MPLAB-X/XC32_Compiler/bin/bin/../../lib/gcc/pic32mx/4.8.3/../../../../pic32mx/lib/libpic32.a(vector27.o)
                              /home/john/MPLAB-X/XC32_Compiler/bin/bin/../../lib/gcc/pic32mx/4.8.3/../../../../pic32mx/lib/./proc/32MX795F512L/default_isr_vectors.o (__vector_dispatch_27)
/home/john/MPLAB-X/XC32_Compiler/bin/bin/../../lib/gcc/pic32mx/4.8.3/../../../../pic32mx/lib/libpic32.a(vector28.o)
                              /home/john/MPLAB-X/XC32_Compiler/bin/bin/../../lib/gcc/pic32mx/4.8.3/../../../../pic32mx/lib/./proc/32MX795F512L/default_isr_vectors.o (__vector_dispatch_28)
/home/john/MPLAB-X/XC32_Compiler/bin/bin/../../lib/gcc/pic32mx/4.8.3/../../../../pic32mx/lib/libpic32.a(vector29.o)
                              /home/john/MPLAB-X/XC32_Compiler/bin/bin/../../lib/gcc/pic32mx/4.8.3/../../../../pic32mx/lib/./proc/32MX795F512L/default_isr_vectors.o (__vector_dispatch_29)
/home/john/MPLAB-X/XC32_Compiler/bin/bin/../../lib/gcc/pic32mx/4.8.3/../../../../pic32mx/lib/libpic32.a(vector30.o)
                              /home/john/MPLAB-X/XC32_Compiler/bin/bin/../../lib/gcc/pic32mx/4.8.3/../../../../pic32mx/lib/./proc/32MX795F512L/default_isr_vectors.o (__vector_dispatch_30)
/home/john/MPLAB-X/XC32_Compiler/bin/bin/../../lib/gcc/pic32mx/4.8.3/../../../../pic32mx/lib/libpic32.a(vector31.o)
                              /home/john/MPLAB-X/XC32_Compiler/bin/bin/../../lib/gcc/pic32mx/4.8.3/../../../../pic32mx/lib/./proc/32MX795F512L/default_isr_vectors.o (__vector_dispatch_31)
/home/john/MPLAB-X/XC32_Compiler/bin/bin/../../lib/gcc/pic32mx/4.8.3/../../../../pic32mx/lib/libpic32.a(vector32.o)
                              /home/john/MPLAB-X/XC32_Compiler/bin/bin/../../lib/gcc/pic32mx/4.8.3/../../../../pic32mx/lib/./proc/32MX795F512L/default_isr_vectors.o (__vector_dispatch_32)
/home/john/MPLAB-X/XC32_Compiler/bin/bin/../../lib/gcc/pic32mx/4.8.3/../../../../pic32mx/lib/libpic32.a(vector33.o)
                              /home/john/MPLAB-X/XC32_Compiler/bin/bin/../../lib/gcc/pic32mx/4.8.3/../../../../pic32mx/lib/./proc/32MX795F512L/default_isr_vectors.o (__vector_dispatch_33)
/home/john/MPLAB-X/XC32_Compiler/bin/bin/../../lib/gcc/pic32mx/4.8.3/../../../../pic32mx/lib/libpic32.a(vector34.o)
                              /home/john/MPLAB-X/XC32_Compiler/bin/bin/../../lib/gcc/pic32mx/4.8.3/../../../../pic32mx/lib/./proc/32MX795F512L/default_isr_vectors.o (__vector_dispatch_34)
/home/john/MPLAB-X/XC32_Compiler/bin/bin/../../lib/gcc/pic32mx/4.8.3/../../../../pic32mx/lib/libpic32.a(vector35.o)
                              /home/john/MPLAB-X/XC32_Compiler/bin/bin/../../lib/gcc/pic32mx/4.8.3/../../../../pic32mx/lib/./proc/32MX795F512L/default_isr_vectors.o (__vector_dispatch_35)
/home/john/MPLAB-X/XC32_Compiler/bin/bin/../../lib/gcc/pic32mx/4.8.3/../../../../pic32mx/lib/libpic32.a(vector36.o)
                              /home/john/MPLAB-X/XC32_Compiler/bin/bin/../../lib/gcc/pic32mx/4.8.3/../../../../pic32mx/lib/./proc/32MX795F512L/default_isr_vectors.o (__vector_dispatch_36)
/home/john/MPLAB-X/XC32_Compiler/bin/bin/../../lib/gcc/pic32mx/4.8.3/../../../../pic32mx/lib/libpic32.a(vector37.o)
                              /home/john/MPLAB-X/XC32_Compiler/bin/bin/../../lib/gcc/pic32mx/4.8.3/../../../../pic32mx/lib/./proc/32MX795F512L/default_isr_vectors.o (__vector_dispatch_37)
/home/john/MPLAB-X/XC32_Compiler/bin/bin/../../lib/gcc/pic32mx/4.8.3/../../../../pic32mx/lib/libpic32.a(vector38.o)
                              /home/john/MPLAB-X/XC32_Compiler/bin/bin/../../lib/gcc/pic32mx/4.8.3/../../../../pic32mx/lib/./proc/32MX795F512L/default_isr_vectors.o (__vector_dispatch_38)
/home/john/MPLAB-X/XC32_Compiler/bin/bin/../../lib/gcc/pic32mx/4.8.3/../../../../pic32mx/lib/libpic32.a(vector39.o)
                              /home/john/MPLAB-X/XC32_Compiler/bin/bin/../../lib/gcc/pic32mx/4.8.3/../../../../pic32mx/lib/./proc/32MX795F512L/default_isr_vectors.o (__vector_dispatch_39)
/home/john/MPLAB-X/XC32_Compiler/bin/bin/../../lib/gcc/pic32mx/4.8.3/../../../../pic32mx/lib/libpic32.a(vector40.o)
                              /home/john/MPLAB-X/XC32_Compiler/bin/bin/../../lib/gcc/pic32mx/4.8.3/../../../../pic32mx/lib/./proc/32MX795F512L/default_isr_vectors.o (__vector_dispatch_40)
/home/john/MPLAB-X/XC32_Compiler/bin/bin/../../lib/gcc/pic32mx/4.8.3/../../../../pic32mx/lib/libpic32.a(vector41.o)
                              /home/john/MPLAB-X/XC32_Compiler/bin/bin/../../lib/gcc/pic32mx/4.8.3/../../../../pic32mx/lib/./proc/32MX795F512L/default_isr_vectors.o (__vector_dispatch_41)
/home/john/MPLAB-X/XC32_Compiler/bin/bin/../../lib/gcc/pic32mx/4.8.3/../../../../pic32mx/lib/libpic32.a(vector42.o)
                              /home/john/MPLAB-X/XC32_Compiler/bin/bin/../../lib/gcc/pic32mx/4.8.3/../../../../pic32mx/lib/./proc/32MX795F512L/default_isr_vectors.o (__vector_dispatch_42)
/home/john/MPLAB-X/XC32_Compiler/bin/bin/../../lib/gcc/pic32mx/4.8.3/../../../../pic32mx/lib/libpic32.a(vector43.o)
                              /home/john/MPLAB-X/XC32_Compiler/bin/bin/../../lib/gcc/pic32mx/4.8.3/../../../../pic32mx/lib/./proc/32MX795F512L/default_isr_vectors.o (__vector_dispatch_43)
/home/john/MPLAB-X/XC32_Compiler/bin/bin/../../lib/gcc/pic32mx/4.8.3/../../../../pic32mx/lib/libpic32.a(vector44.o)
                              /home/john/MPLAB-X/XC32_Compiler/bin/bin/../../lib/gcc/pic32mx/4.8.3/../../../../pic32mx/lib/./proc/32MX795F512L/default_isr_vectors.o (__vector_dispatch_44)
/home/john/MPLAB-X/XC32_Compiler/bin/bin/../../lib/gcc/pic32mx/4.8.3/../../../../pic32mx/lib/libpic32.a(vector45.o)
                              /home/john/MPLAB-X/XC32_Compiler/bin/bin/../../lib/gcc/pic32mx/4.8.3/../../../../pic32mx/lib/./proc/32MX795F512L/default_isr_vectors.o (__vector_dispatch_45)
/home/john/MPLAB-X/XC32_Compiler/bin/bin/../../lib/gcc/pic32mx/4.8.3/../../../../pic32mx/lib/libpic32.a(vector46.o)
                              /home/john/MPLAB-X/XC32_Compiler/bin/bin/../../lib/gcc/pic32mx/4.8.3/../../../../pic32mx/lib/./proc/32MX795F512L/default_isr_vectors.o (__vector_dispatch_46)
/home/john/MPLAB-X/XC32_Compiler/bin/bin/../../lib/gcc/pic32mx/4.8.3/../../../../pic32mx/lib/libpic32.a(vector47.o)
                              /home/john/MPLAB-X/XC32_Compiler/bin/bin/../../lib/gcc/pic32mx/4.8.3/../../../../pic32mx/lib/./proc/32MX795F512L/default_isr_vectors.o (__vector_dispatch_47)
/home/john/MPLAB-X/XC32_Compiler/bin/bin/../../lib/gcc/pic32mx/4.8.3/../../../../pic32mx/lib/libpic32.a(vector48.o)
                              /home/john/MPLAB-X/XC32_Compiler/bin/bin/../../lib/gcc/pic32mx/4.8.3/../../../../pic32mx/lib/./proc/32MX795F512L/default_isr_vectors.o (__vector_dispatch_48)
/home/john/MPLAB-X/XC32_Compiler/bin/bin/../../lib/gcc/pic32mx/4.8.3/../../../../pic32mx/lib/libpic32.a(vector49.o)
                              /home/john/MPLAB-X/XC32_Compiler/bin/bin/../../lib/gcc/pic32mx/4.8.3/../../../../pic32mx/lib/./proc/32MX795F512L/default_isr_vectors.o (__vector_dispatch_49)
/home/john/MPLAB-X/XC32_Compiler/bin/bin/../../lib/gcc/pic32mx/4.8.3/../../../../pic32mx/lib/libpic32.a(vector50.o)
                              /home/john/MPLAB-X/XC32_Compiler/bin/bin/../../lib/gcc/pic32mx/4.8.3/../../../../pic32mx/lib/./proc/32MX795F512L/default_isr_vectors.o (__vector_dispatch_50)
/home/john/MPLAB-X/XC32_Compiler/bin/bin/../../lib/gcc/pic32mx/4.8.3/../../../../pic32mx/lib/libpic32.a(vector51.o)
                              /home/john/MPLAB-X/XC32_Compiler/bin/bin/../../lib/gcc/pic32mx/4.8.3/../../../../pic32mx/lib/./proc/32MX795F512L/default_isr_vectors.o (__vector_dispatch_51)
/home/john/MPLAB-X/XC32_Compiler/bin/bin/../../lib/gcc/pic32mx/4.8.3/../../../../pic32mx/lib/libpic32.a(defaultinterrupt.o)
                              /home/john/MPLAB-X/XC32_Compiler/bin/bin/../../lib/gcc/pic32mx/4.8.3/../../../../pic32mx/lib/libpic32.a(vector0.o) (_DefaultInterrupt)
/home/john/MPLAB-X/XC32_Compiler/bin/bin/../../lib/gcc/pic32mx/4.8.3/../../../../pic32mx/lib/libdebug.a(appio.o)
                              build/default/debug/_ext/1360937237/app_public.o (_appio_init)
/home/john/MPLAB-X/XC32_Compiler/bin/bin/../../lib/gcc/pic32mx/4.8.3/../../../../pic32mx/lib/libpic32.a(xc32_uart.o)
                              /home/john/MPLAB-X/XC32_Compiler/bin/bin/../../lib/gcc/pic32mx/4.8.3/../../../../pic32mx/lib/libdebug.a(appio.o) (__XC_UART)
/home/john/MPLAB-X/XC32_Compiler/bin/bin/../../lib/gcc/pic32mx/4.8.3/../../../../pic32mx/lib/libc.a(_iob.o)
                              build/default/debug/_ext/207392127/sys_console_appio.o (_iob)
/home/john/MPLAB-X/XC32_Compiler/bin/bin/../../lib/gcc/pic32mx/4.8.3/../../../../pic32mx/lib/libc.a(setbuf.o)
                              build/default/debug/_ext/207392127/sys_console_appio.o (setvbuf)
/home/john/MPLAB-X/XC32_Compiler/bin/bin/../../lib/gcc/pic32mx/4.8.3/../../../../pic32mx/lib/libc.a(printf_s.eo)
                              build/default/debug/_ext/207392127/sys_console_appio.o (_printf_s)
/home/john/MPLAB-X/XC32_Compiler/bin/bin/../../lib/gcc/pic32mx/4.8.3/../../../../pic32mx/lib/libc.a(scanf_s.eo)
                              build/default/debug/_ext/207392127/sys_console_appio.o (_scanf_s)
/home/john/MPLAB-X/XC32_Compiler/bin/bin/../../lib/gcc/pic32mx/4.8.3/../../../../pic32mx/lib/libc.a(vsnprintf.o)
                              build/default/debug/_ext/1952159421/sys_debug.o (vsnprintf)
/home/john/MPLAB-X/XC32_Compiler/bin/bin/../../lib/gcc/pic32mx/4.8.3/../../../../pic32mx/lib/libc.a(buf.o)
                              /home/john/MPLAB-X/XC32_Compiler/bin/bin/../../lib/gcc/pic32mx/4.8.3/../../../../pic32mx/lib/libc.a(setbuf.o) (_bufallo)
/home/john/MPLAB-X/XC32_Compiler/bin/bin/../../lib/gcc/pic32mx/4.8.3/../../../../pic32mx/lib/libc.a(errno.o)
                              /home/john/MPLAB-X/XC32_Compiler/bin/bin/../../lib/gcc/pic32mx/4.8.3/../../../../pic32mx/lib/libc.a(buf.o) (errno)
/home/john/MPLAB-X/XC32_Compiler/bin/bin/../../lib/gcc/pic32mx/4.8.3/../../../../pic32mx/lib/libc.a(doprnt_s.eo)
                              /home/john/MPLAB-X/XC32_Compiler/bin/bin/../../lib/gcc/pic32mx/4.8.3/../../../../pic32mx/lib/libc.a(printf_s.eo) (_vfprintf_s)
/home/john/MPLAB-X/XC32_Compiler/bin/bin/../../lib/gcc/pic32mx/4.8.3/../../../../pic32mx/lib/libc.a(doprnt.o)
                              /home/john/MPLAB-X/XC32_Compiler/bin/bin/../../lib/gcc/pic32mx/4.8.3/../../../../pic32mx/lib/libc.a(vsnprintf.o) (vfprintf)
/home/john/MPLAB-X/XC32_Compiler/bin/bin/../../lib/gcc/pic32mx/4.8.3/../../../../pic32mx/lib/libc.a(doscan_s.eo)
                              /home/john/MPLAB-X/XC32_Compiler/bin/bin/../../lib/gcc/pic32mx/4.8.3/../../../../pic32mx/lib/libc.a(scanf_s.eo) (_vfscanf_s)
/home/john/MPLAB-X/XC32_Compiler/bin/bin/../../lib/gcc/pic32mx/4.8.3/../../../../pic32mx/lib/libc.a(fgetc.o)
                              /home/john/MPLAB-X/XC32_Compiler/bin/bin/../../lib/gcc/pic32mx/4.8.3/../../../../pic32mx/lib/libc.a(doscan_s.eo) (fgetc)
/home/john/MPLAB-X/XC32_Compiler/bin/bin/../../lib/gcc/pic32mx/4.8.3/../../../../pic32mx/lib/libc.a(_fputc_simple.o)
                              /home/john/MPLAB-X/XC32_Compiler/bin/bin/../../lib/gcc/pic32mx/4.8.3/../../../../pic32mx/lib/libc.a(doprnt_s.eo) (fputc)
/home/john/MPLAB-X/XC32_Compiler/bin/bin/../../lib/gcc/pic32mx/4.8.3/../../../../pic32mx/lib/libc.a(atoi.o)
                              /home/john/MPLAB-X/XC32_Compiler/bin/bin/../../lib/gcc/pic32mx/4.8.3/../../../../pic32mx/lib/libc.a(doscan_s.eo) (atoi)
/home/john/MPLAB-X/XC32_Compiler/bin/bin/../../lib/gcc/pic32mx/4.8.3/../../../../pic32mx/lib/libc.a(ctype.o)
                              /home/john/MPLAB-X/XC32_Compiler/bin/bin/../../lib/gcc/pic32mx/4.8.3/../../../../pic32mx/lib/libc.a(doprnt_s.eo) (_ctype)
/home/john/MPLAB-X/XC32_Compiler/bin/bin/../../lib/gcc/pic32mx/4.8.3/../../../../pic32mx/lib/libc.a(ctypef.o)
                              /home/john/MPLAB-X/XC32_Compiler/bin/bin/../../lib/gcc/pic32mx/4.8.3/../../../../pic32mx/lib/libc.a(doscan_s.eo) (tolower)
/home/john/MPLAB-X/XC32_Compiler/bin/bin/../../lib/gcc/pic32mx/4.8.3/../../../../pic32mx/lib/libc.a(powersf.o)
                              /home/john/MPLAB-X/XC32_Compiler/bin/bin/../../lib/gcc/pic32mx/4.8.3/../../../../pic32mx/lib/libc.a(doprnt.o) (_npowers_f)
/home/john/MPLAB-X/XC32_Compiler/bin/bin/../../lib/gcc/pic32mx/4.8.3/../../../../pic32mx/lib/libc.a(ungetc.o)
                              /home/john/MPLAB-X/XC32_Compiler/bin/bin/../../lib/gcc/pic32mx/4.8.3/../../../../pic32mx/lib/libc.a(doscan_s.eo) (ungetc)
/home/john/MPLAB-X/XC32_Compiler/bin/bin/../../lib/gcc/pic32mx/4.8.3/../../../../pic32mx/lib/libc.a(filbuf.o)
                              /home/john/MPLAB-X/XC32_Compiler/bin/bin/../../lib/gcc/pic32mx/4.8.3/../../../../pic32mx/lib/libc.a(fgetc.o) (_filbuf)
/home/john/MPLAB-X/XC32_Compiler/bin/bin/../../lib/gcc/pic32mx/4.8.3/../../../../pic32mx/lib/libc.a(_flsbuf_simple.o)
                              /home/john/MPLAB-X/XC32_Compiler/bin/bin/../../lib/gcc/pic32mx/4.8.3/../../../../pic32mx/lib/libc.a(_fputc_simple.o) (_flsbuf)
/home/john/MPLAB-X/XC32_Compiler/bin/bin/../../lib/gcc/pic32mx/4.8.3/../../../../pic32mx/lib/libc.a(fflush.o)
                              /home/john/MPLAB-X/XC32_Compiler/bin/bin/../../lib/gcc/pic32mx/4.8.3/../../../../pic32mx/lib/libc.a(filbuf.o) (fflush)
/home/john/MPLAB-X/XC32_Compiler/bin/bin/../../lib/gcc/pic32mx/4.8.3/../../../../pic32mx/lib/libpic32.a(sbrk.o)
                              /home/john/MPLAB-X/XC32_Compiler/bin/bin/../../lib/gcc/pic32mx/4.8.3/../../../../pic32mx/lib/libc.a(buf.o) (sbrk)
/home/john/MPLAB-X/XC32_Compiler/bin/bin/../../lib/gcc/pic32mx/4.8.3/../../../../pic32mx/lib/libpic32.a(read.o)
                              /home/john/MPLAB-X/XC32_Compiler/bin/bin/../../lib/gcc/pic32mx/4.8.3/../../../../pic32mx/lib/libc.a(filbuf.o) (read)
/home/john/MPLAB-X/XC32_Compiler/bin/bin/../../lib/gcc/pic32mx/4.8.3/../../../../pic32mx/lib/libpic32.a(write.o)
                              /home/john/MPLAB-X/XC32_Compiler/bin/bin/../../lib/gcc/pic32mx/4.8.3/../../../../pic32mx/lib/libc.a(_fputc_simple.o) (write)
/home/john/MPLAB-X/XC32_Compiler/bin/bin/../../lib/gcc/pic32mx/4.8.3/../../../../pic32mx/lib/libm.a(fp32div.o)
                              /home/john/MPLAB-X/XC32_Compiler/bin/bin/../../lib/gcc/pic32mx/4.8.3/../../../../pic32mx/lib/libc.a(doprnt.o) (fpdiv)
/home/john/MPLAB-X/XC32_Compiler/bin/bin/../../lib/gcc/pic32mx/4.8.3/../../../../pic32mx/lib/libm.a(fp32mul.o)
                              /home/john/MPLAB-X/XC32_Compiler/bin/bin/../../lib/gcc/pic32mx/4.8.3/../../../../pic32mx/lib/libc.a(doprnt.o) (fpmul)
/home/john/MPLAB-X/XC32_Compiler/bin/bin/../../lib/gcc/pic32mx/4.8.3/../../../../pic32mx/lib/libm.a(fp32subadd.o)
                              /home/john/MPLAB-X/XC32_Compiler/bin/bin/../../lib/gcc/pic32mx/4.8.3/../../../../pic32mx/lib/libc.a(doprnt.o) (fpsub)
/home/john/MPLAB-X/XC32_Compiler/bin/bin/../../lib/gcc/pic32mx/4.8.3/../../../../pic32mx/lib/libm.a(fpcmp.o)
                              /home/john/MPLAB-X/XC32_Compiler/bin/bin/../../lib/gcc/pic32mx/4.8.3/../../../../pic32mx/lib/libc.a(doprnt.o) (fpcmp)
/home/john/MPLAB-X/XC32_Compiler/bin/bin/../../lib/gcc/pic32mx/4.8.3/../../../../pic32mx/lib/libm.a(fpfrexp.o)
                              /home/john/MPLAB-X/XC32_Compiler/bin/bin/../../lib/gcc/pic32mx/4.8.3/../../../../pic32mx/lib/libc.a(doprnt.o) (frexpf)
/home/john/MPLAB-X/XC32_Compiler/bin/bin/../../lib/gcc/pic32mx/4.8.3/../../../../pic32mx/lib/libm.a(fptoul.o)
                              /home/john/MPLAB-X/XC32_Compiler/bin/bin/../../lib/gcc/pic32mx/4.8.3/../../../../pic32mx/lib/libc.a(doprnt.o) (fptoui)
/home/john/MPLAB-X/XC32_Compiler/bin/bin/../../lib/gcc/pic32mx/4.8.3/../../../../pic32mx/lib/libe.a(_floatdisf.o)
                              /home/john/MPLAB-X/XC32_Compiler/bin/bin/../../lib/gcc/pic32mx/4.8.3/../../../../pic32mx/lib/libc.a(doprnt.o) (__floatdisf)
/home/john/MPLAB-X/XC32_Compiler/bin/bin/../../lib/gcc/pic32mx/4.8.3/libgcc.a(_udivdi3.o)
                              /home/john/MPLAB-X/XC32_Compiler/bin/bin/../../lib/gcc/pic32mx/4.8.3/../../../../pic32mx/lib/libc.a(doprnt_s.eo) (__udivdi3)
/home/john/MPLAB-X/XC32_Compiler/bin/bin/../../lib/gcc/pic32mx/4.8.3/libgcc.a(_umoddi3.o)
                              /home/john/MPLAB-X/XC32_Compiler/bin/bin/../../lib/gcc/pic32mx/4.8.3/../../../../pic32mx/lib/libc.a(doprnt_s.eo) (__umoddi3)
/home/john/MPLAB-X/XC32_Compiler/bin/bin/../../lib/gcc/pic32mx/4.8.3/libgcc.a(floatunsisf.o)
                              /home/john/MPLAB-X/XC32_Compiler/bin/bin/../../lib/gcc/pic32mx/4.8.3/../../../../pic32mx/lib/libc.a(doprnt.o) (__floatunsisf)
/home/john/MPLAB-X/XC32_Compiler/bin/bin/../../lib/gcc/pic32mx/4.8.3/../../../../pic32mx/lib/libm.a(sitofp.o)
                              /home/john/MPLAB-X/XC32_Compiler/bin/bin/../../lib/gcc/pic32mx/4.8.3/libgcc.a(floatunsisf.o) (sitofp)

Allocating common symbols
Common symbol       size              file

pxDelayedTaskList   0x4               build/default/debug/_ext/1458882252/tasks.o
sysDebugInstance    0x10              build/default/debug/_ext/1952159421/sys_debug.o
appData             0x10              build/default/debug/_ext/1360937237/app.o
sysObj              0x10              build/default/debug/_ext/1688732426/system_init.o
gblErrLvl           0x4               build/default/debug/_ext/1952159421/sys_debug.o
pxReadyTasksLists   0x64              build/default/debug/_ext/1458882252/tasks.o
pxOverflowDelayedTaskList
                    0x4               build/default/debug/_ext/1458882252/tasks.o
gDrvUSARTCommonDataObj
                    0xc               build/default/debug/_ext/382300584/drv_usart.o
xPendingReadyList   0x14              build/default/debug/_ext/1458882252/tasks.o
gDrvUSARTClientObj  0x4c              build/default/debug/_ext/382300584/drv_usart.o
xTasksWaitingTermination
                    0x14              build/default/debug/_ext/1458882252/tasks.o
gDrvUSARTObj        0x60              build/default/debug/_ext/382300584/drv_usart.o
sysDevconObj        0x8               build/default/debug/_ext/1921105363/sys_devcon.o
xSuspendedTaskList  0x14              build/default/debug/_ext/1458882252/tasks.o
xDelayedTaskList2   0x14              build/default/debug/_ext/1458882252/tasks.o
xDelayedTaskList1   0x14              build/default/debug/_ext/1458882252/tasks.o

Microchip PIC32 Memory-Usage Report

kseg0 Program-Memory Usage
section                    address  length [bytes]      (dec)  Description
-------                 ----------  -------------------------  -----------
.text.vfprintf          0x9d000000         0x1c0c        7180   
.text._DRV_USART_Hardwa 0x9d001c0c         0x1138        4408   
.text._vfscanf_s        0x9d002d44          0x934        2356   
.text._vfprintf_s       0x9d003678          0x840        2112   
.text                   0x9d003eb8          0xd10        3344  App's exec code 
.text.DRV_USART_Initial 0x9d004bc8          0x3b0         944   
.text.Console_APPIO_Tas 0x9d004f78          0x2c4         708   
.rodata                 0x9d00523c          0x27c         636  Read-only const 
.text.fpsubadd          0x9d0054b8          0x278         632   
.text.prvTimerTask      0x9d005730          0x274         628   
.dinit                  0x9d0059a4          0x270         624   
.text.xQueueGenericRece 0x9d005c14          0x24c         588   
.text.APPIO_DEBUG       0x9d005e60          0x248         584   
.text.fp32div           0x9d0060a8          0x230         560   
.text.scale             0x9d0062d8          0x21c         540   
.text.__floatdisf       0x9d0064f4          0x214         532   
.text.DRV_USART_TasksEr 0x9d006708          0x208         520   
.text.xQueueGenericSend 0x9d006910          0x208         520   
.text.xTaskGenericCreat 0x9d006b18          0x1c0         448   
.text.fp32mul           0x9d006cd8          0x1bc         444   
.DrvUsartInstance0_vect 0x9d006e94          0x1b4         436   
.text.fround            0x9d007048          0x1a4         420   
.text                   0x9d0071ec          0x1a0         416  App's exec code 
.text.xTaskIncrementTic 0x9d00738c          0x19c         412   
.text._sbrk_init        0x9d007528          0x194         404   
.text._filbuf           0x9d0076bc          0x188         392   
.text                   0x9d007844          0x2d0         720  App's exec code 
.text.read              0x9d007b14          0x158         344   
.text.xTaskResumeAll    0x9d007c6c          0x154         340   
.rodata                 0x9d007dc0          0x154         340  Read-only const 
.text.fputc             0x9d007f14          0x144         324   
.text.vTaskPriorityInhe 0x9d008058          0x12c         300   
.text._flsbuf           0x9d008184          0x12c         300   
.text.prvUnlockQueue    0x9d0082b0          0x104         260   
.text.prvSampleTimeNow  0x9d0083b4          0x104         260   
.text.fgetc             0x9d0084b8          0x104         260   
.rodata                 0x9d0085bc          0x104         260  Read-only const 
.text.setvbuf           0x9d0086c0          0x100         256   
.text.prvCopyDataToQueu 0x9d0087c0           0xfc         252   
.text.SYS_DEBUG_Print   0x9d0088bc           0xf8         248   
.text.xTaskPriorityDisi 0x9d0089b4           0xf8         248   
.text.xQueueGenericSend 0x9d008aac           0xe8         232   
.rodata                 0x9d008b94            0x4           4  Read-only const 
.rodata                 0x9d008b98           0xe8         232  Read-only const 
.text.vTaskSwitchContex 0x9d008c80           0xe0         224   
.text.SYS_DEVCON_Perfor 0x9d008d60           0xdc         220   
.text.general_exception 0x9d008e3c           0xdc         220   
.text.SYS_Initialize    0x9d008f18           0xc8         200   
.text._sbrk             0x9d008fe0           0xc8         200   
.text.xQueueGenericRese 0x9d0090a8           0xc4         196   
.text.pvPortMalloc      0x9d00916c           0xc0         192   
.rodata                 0x9d00922c            0x4           4  Read-only const 
.rodata                 0x9d009230           0xc0         192  Read-only const 
.text.xTaskRemoveFromEv 0x9d0092f0           0xbc         188   
.text.Console_APPIO_Wri 0x9d0093ac           0xb4         180   
.text.Console_APPIO_Rea 0x9d009460           0xb4         180   
.text.prvInitialiseTCBV 0x9d009514           0xb4         180   
.text.DRV_USART_TasksTr 0x9d0095c8           0xac         172   
.text.DRV_USART_TasksRe 0x9d009674           0xac         172   
.text                   0x9d009720           0xa8         168  App's exec code 
.text.range             0x9d0097c8           0xa8         168   
.text.atoi              0x9d009870           0xa8         168   
.text.SYS_PORTS_Initial 0x9d009918           0xa4         164   
.text.vTaskPlaceOnEvent 0x9d0099bc           0xa0         160   
.text.xTaskCheckForTime 0x9d009a5c           0xa0         160   
.text.fflush            0x9d009afc           0xa0         160   
.text.write             0x9d009b9c           0x9c         156   
.text.fpcmp             0x9d009c38           0x9c         156   
.text.APP_Initialize    0x9d009cd4           0x98         152   
.text.vTaskStartSchedul 0x9d009d6c           0x98         152   
.text.xTimerCreate      0x9d009e04           0x98         152   
.text.xQueueGenericCrea 0x9d009e9c           0x94         148   
.text.vTaskPlaceOnEvent 0x9d009f30           0x94         148   
.text.xTimerGenericComm 0x9d009fc4           0x94         148   
.text.prvInitialiseTask 0x9d00a058           0x90         144   
.text.vTaskDelay        0x9d00a0e8           0x90         144   
.text.prvCheckTasksWait 0x9d00a178           0x90         144   
.text.SYS_CONSOLE_Write 0x9d00a208           0x8c         140   
.text.libm              0x9d00a294           0x88         136   
.text.vQueueWaitForMess 0x9d00a31c           0x84         132   
.text.prvAllocateTCBAnd 0x9d00a3a0           0x84         132   
.text._DRV_USART_ByteTr 0x9d00a424           0x80         128   
.text.xQueueCreateMutex 0x9d00a4a4           0x80         128   
.text.SYS_Tasks         0x9d00a524           0x80         128   
.text.fptoul            0x9d00a5a4           0x7c         124   
.text.SYS_CONSOLE_Initi 0x9d00a620           0x78         120   
.text._DRV_USART_ByteRe 0x9d00a698           0x74         116   
.text._DRV_USART_ByteEr 0x9d00a70c           0x74         116   
.text.prvInsertTimerInA 0x9d00a780           0x74         116   
.text.prvCheckForValidL 0x9d00a7f4           0x74         116   
.text.ungetc            0x9d00a868           0x74         116   
.text.prvAddCurrentTask 0x9d00a8dc           0x70         112   
.text.vApplicationSetup 0x9d00a94c           0x6c         108   
.text.vTaskExitCritical 0x9d00a9b8           0x68         104   
.rodata                 0x9d00aa20           0x68         104  Read-only const 
.text._general_exceptio 0x9d00aa88           0x64         100   
.text.xTimerCreateTimer 0x9d00aaec           0x60          96   
.text.wspace            0x9d00ab4c           0x60          96   
.text.sitofp            0x9d00abac           0x60          96   
.text.vListInsert       0x9d00ac0c           0x5c          92   
.text.xPortStartSchedul 0x9d00ac68           0x5c          92   
.text.vsnprintf         0x9d00acc4           0x5c          92   
.text._bufallo          0x9d00ad20           0x5c          92   
.text.SYS_DEVCON_System 0x9d00ad7c           0x58          88   
.text.SYS_INT_SourceDis 0x9d00add4           0x58          88   
.text.SYS_CLK_Initializ 0x9d00ae2c           0x58          88   
.text.main_entry        0x9d00ae84           0x54          84   
.text.pxPortInitialiseS 0x9d00aed8           0x54          84   
.text.vPortIncrementTic 0x9d00af2c           0x54          84   
.text.prvCopyDataFromQu 0x9d00af80           0x50          80   
.text.vTaskEnterCritica 0x9d00afd0           0x50          80   
.text.sbrk              0x9d00b020           0x50          80   
.text.SYS_CONSOLE_Tasks 0x9d00b070           0x4c          76   
.text.Console_APPIO_Flu 0x9d00b0bc           0x4c          76   
.rodata                 0x9d00b108           0x4c          76  Read-only const 
.text                   0x9d00b154           0x4c          76  App's exec code 
.text.SYS_DEVCON_System 0x9d00b1a0           0x48          72   
.text._bootstrap_except 0x9d00b1e8           0x48          72   
.vector_default         0x9d00b230           0x48          72   
.text.uxListRemove      0x9d00b278           0x44          68   
.text                   0x9d00b2bc           0x44          68  App's exec code 
.text.prvIdleTask       0x9d00b300           0x40          64   
.text._printf_s         0x9d00b340           0x40          64   
.text._scanf_s          0x9d00b380           0x40          64   
.text.OSAL_MUTEX_Create 0x9d00b3c0           0x3c          60   
.text.SYS_DEBUG_Message 0x9d00b3fc           0x3c          60   
.text.uxPortSetInterrup 0x9d00b438           0x3c          60   
.text.IntHandlerDrvUsar 0x9d00b474           0x3c          60   
.text.prvResetNextTaskU 0x9d00b4b0           0x38          56   
.text._SYS_Tasks        0x9d00b4e8           0x34          52   
.text.popQueue          0x9d00b51c           0x30          48   
.text.SYS_DEBUG_Initial 0x9d00b54c           0x30          48   
.text.vListInsertEnd    0x9d00b57c           0x30          48   
.text.prvDeleteTCB      0x9d00b5ac           0x30          48   
.text.Console_APPIO_Rea 0x9d00b5dc           0x2c          44   
.text.prvTaskExitError  0x9d00b608           0x2c          44   
.text.vApplicationStack 0x9d00b634           0x2c          44   
.text.vApplicationMallo 0x9d00b660           0x2c          44   
.text._stub_sbd_memlayo 0x9d00b68c           0x2c          44   
.text.vTimerCallback1   0x9d00b6b8           0x28          40   
.text.Console_APPIO_Reg 0x9d00b6e0           0x28          40   
.text.pvTaskIncrementMu 0x9d00b708           0x28          40   
.text.appInitTimerMQ    0x9d00b730           0x24          36   
.text.tolower           0x9d00b754           0x24          36   
.text.APP_Tasks         0x9d00b778           0x20          32   
.text.main              0x9d00b798           0x20          32   
.text.vListInitialise   0x9d00b7b8           0x20          32   
.text.xTaskGetScheduler 0x9d00b7d8           0x20          32   
.text.SYS_DEVCON_JTAGDi 0x9d00b7f8           0x1c          28   
.text.vPortClearInterru 0x9d00b814           0x1c          28   
.text.SYS_INT_Initializ 0x9d00b830           0x18          24   
.text._APP_Tasks        0x9d00b848           0x18          24   
.rodata                 0x9d00b860           0x18          24  Read-only const 
.text                   0x9d00b878           0x18          24  App's exec code 
.text.SYS_DEVCON_Initia 0x9d00b890           0x14          20   
.text.vTaskSuspendAll   0x9d00b8a4           0x14          20   
.text.vTaskSetTimeOutSt 0x9d00b8b8           0x14          20   
.text._buffree          0x9d00b8cc           0x14          20   
.text.Console_APPIO_Sta 0x9d00b8e0           0x10          16   
.text.vTaskMissedYield  0x9d00b8f0           0x10          16   
.text.__exception_handl 0x9d00b900            0xc          12   
.text.xTaskGetTickCount 0x9d00b90c            0xc          12   
.text.SYS_CLK_SystemFre 0x9d00b918            0xc          12   
.text.APPIO_DEBUG._appi 0x9d00b924            0xc          12   
.rodata                 0x9d00b930            0x8           8  Read-only const 
.text.SYS_DEBUG_ErrorLe 0x9d00b938            0x8           8   
.text.SYS_DEVCON_Tasks  0x9d00b940            0x8           8   
.text.vListInitialiseIt 0x9d00b948            0x8           8   
.rodata                 0x9d00b950           0x10          16  Read-only const 
.text.vPortFree         0x9d00b960            0x8           8   
.text._on_reset         0x9d00b968            0x8           8   
.text._on_bootstrap     0x9d00b970            0x8           8   
      Total kseg0_program_mem used  :      0xb978       47480  9.1% of 0x80000

kseg0 Boot-Memory Usage
section                    address  length [bytes]      (dec)  Description
-------                 ----------  -------------------------  -----------
         Total kseg0_boot_mem used  :           0           0  <1% of 0x970

Exception-Memory Usage 
section                    address  length [bytes]      (dec)  Description
-------                 ----------  -------------------------  -----------
.app_excpt              0x9fc01180           0x10          16  General-Exception 
.vector_0               0x9fc01200            0x8           8  Interrupt Vector 0 
.vector_1               0x9fc01220            0x8           8  Interrupt Vector 1 
.vector_2               0x9fc01240            0x8           8  Interrupt Vector 2 
.vector_3               0x9fc01260            0x8           8  Interrupt Vector 3 
.vector_4               0x9fc01280            0x8           8  Interrupt Vector 4 
.vector_5               0x9fc012a0            0x8           8  Interrupt Vector 5 
.vector_6               0x9fc012c0            0x8           8  Interrupt Vector 6 
.vector_7               0x9fc012e0            0x8           8  Interrupt Vector 7 
.vector_8               0x9fc01300            0x8           8  Interrupt Vector 8 
.vector_9               0x9fc01320            0x8           8  Interrupt Vector 9 
.vector_10              0x9fc01340            0x8           8  Interrupt Vector 10 
.vector_11              0x9fc01360            0x8           8  Interrupt Vector 11 
.vector_12              0x9fc01380            0x8           8  Interrupt Vector 12 
.vector_13              0x9fc013a0            0x8           8  Interrupt Vector 13 
.vector_14              0x9fc013c0            0x8           8  Interrupt Vector 14 
.vector_15              0x9fc013e0            0x8           8  Interrupt Vector 15 
.vector_16              0x9fc01400            0x8           8  Interrupt Vector 16 
.vector_17              0x9fc01420            0x8           8  Interrupt Vector 17 
.vector_18              0x9fc01440            0x8           8  Interrupt Vector 18 
.vector_19              0x9fc01460            0x8           8  Interrupt Vector 19 
.vector_20              0x9fc01480            0x8           8  Interrupt Vector 20 
.vector_21              0x9fc014a0            0x8           8  Interrupt Vector 21 
.vector_22              0x9fc014c0            0x8           8  Interrupt Vector 22 
.vector_23              0x9fc014e0            0x8           8  Interrupt Vector 23 
.vector_24              0x9fc01500           0x10          16  Interrupt Vector 24 
.vector_25              0x9fc01520            0x8           8  Interrupt Vector 25 
.vector_26              0x9fc01540            0x8           8  Interrupt Vector 26 
.vector_27              0x9fc01560            0x8           8  Interrupt Vector 27 
.vector_28              0x9fc01580            0x8           8  Interrupt Vector 28 
.vector_29              0x9fc015a0            0x8           8  Interrupt Vector 29 
.vector_30              0x9fc015c0            0x8           8  Interrupt Vector 30 
.vector_31              0x9fc015e0            0x8           8  Interrupt Vector 31 
.vector_32              0x9fc01600            0x8           8  Interrupt Vector 32 
.vector_33              0x9fc01620            0x8           8  Interrupt Vector 33 
.vector_34              0x9fc01640            0x8           8  Interrupt Vector 34 
.vector_35              0x9fc01660            0x8           8  Interrupt Vector 35 
.vector_36              0x9fc01680            0x8           8  Interrupt Vector 36 
.vector_37              0x9fc016a0            0x8           8  Interrupt Vector 37 
.vector_38              0x9fc016c0            0x8           8  Interrupt Vector 38 
.vector_39              0x9fc016e0            0x8           8  Interrupt Vector 39 
.vector_40              0x9fc01700            0x8           8  Interrupt Vector 40 
.vector_41              0x9fc01720            0x8           8  Interrupt Vector 41 
.vector_42              0x9fc01740            0x8           8  Interrupt Vector 42 
.vector_43              0x9fc01760            0x8           8  Interrupt Vector 43 
.vector_44              0x9fc01780            0x8           8  Interrupt Vector 44 
.vector_45              0x9fc017a0            0x8           8  Interrupt Vector 45 
.vector_46              0x9fc017c0            0x8           8  Interrupt Vector 46 
.vector_47              0x9fc017e0            0x8           8  Interrupt Vector 47 
.vector_48              0x9fc01800            0x8           8  Interrupt Vector 48 
.vector_49              0x9fc01820            0x8           8  Interrupt Vector 49 
.vector_50              0x9fc01840            0x8           8  Interrupt Vector 50 
.vector_51              0x9fc01860            0x8           8  Interrupt Vector 51 
          Total exception_mem used  :       0x1b8         440  10.7% of 0x1000

kseg1 Boot-Memory Usage
section                    address  length [bytes]      (dec)  Description
-------                 ----------  -------------------------  -----------
.reset                  0xbfc00000          0x208         520  Reset handler 
.bev_excpt              0xbfc00380           0x10          16  BEV-Exception 
.dbg_excpt              0xbfc00480            0x8           8   
         Total kseg1_boot_mem used  :       0x220         544  46.6% of 0x490
        --------------------------------------------------------------------------
         Total Program Memory used  :      0xbd50       48464  9.1% of 0x81e00
        --------------------------------------------------------------------------


kseg1 Data-Memory Usage
section                    address  length [bytes]      (dec)  Description
-------                 ----------  -------------------------  -----------
.dbg_data               0xa0000000          0x200         512  Memory reserved for debugger exec 
.sdata                  0xa0000200           0x14          20  Small init data 
.sbss                   0xa0000214           0x78         120  Small uninit data 
.bss                    0xa000028c          0x1b0         432  Uninitialized data 
.bss                    0xa000043c        0x1dad0      121552  Uninitialized data 
.data                   0xa001df0c           0xf0         240  Initialized data 
.bss                    0xa001dffc           0xb4         180  Uninitialized data 
.data                   0xa001e0b0            0x4           4  Initialized data 
.bss                    0xa001e0b4            0x4           4  Uninitialized data 
.bss.errno              0xa001e0b8            0x4           4   
.bss                    0xa001e0bc            0x4           4  Uninitialized data 
         Total kseg1_data_mem used  :     0x1e0c0      123072  93.9% of 0x20000
        --------------------------------------------------------------------------
            Total Data Memory used  :     0x1e0c0      123072  93.9% of 0x20000
        --------------------------------------------------------------------------


Dynamic Data-Memory Reservation
section                    address  length [bytes]      (dec)  Description
-------                 ----------  -------------------------  -----------
heap                    0xa001e0c8          0x800        2048  Reserved for heap 
stack                   0xa001e8e0         0x1718        5912  Reserved for stack 

        --------------------------------------------------------------------------

Discarded input sections

 .text          0x00000000        0x0 /home/john/MPLAB-X/XC32_Compiler/bin/bin/../../lib/gcc/pic32mx/4.8.3/../../../../pic32mx/lib/./proc/32MX795F512L/crt0_mips32r2.o
 .data          0x00000000        0x0 /home/john/MPLAB-X/XC32_Compiler/bin/bin/../../lib/gcc/pic32mx/4.8.3/../../../../pic32mx/lib/./proc/32MX795F512L/crt0_mips32r2.o
 .bss           0x00000000        0x0 /home/john/MPLAB-X/XC32_Compiler/bin/bin/../../lib/gcc/pic32mx/4.8.3/../../../../pic32mx/lib/./proc/32MX795F512L/crt0_mips32r2.o
 .text          0x00000000        0x0 /home/john/MPLAB-X/XC32_Compiler/bin/bin/../../lib/gcc/pic32mx/4.8.3/../../../../pic32mx/lib/software-debug-break.o
 .data          0x00000000        0x0 /home/john/MPLAB-X/XC32_Compiler/bin/bin/../../lib/gcc/pic32mx/4.8.3/../../../../pic32mx/lib/software-debug-break.o
 .bss           0x00000000        0x0 /home/john/MPLAB-X/XC32_Compiler/bin/bin/../../lib/gcc/pic32mx/4.8.3/../../../../pic32mx/lib/software-debug-break.o
 .reginfo       0x00000000       0x18 /home/john/MPLAB-X/XC32_Compiler/bin/bin/../../lib/gcc/pic32mx/4.8.3/../../../../pic32mx/lib/software-debug-break.o
 .text          0x00000000        0x0 build/default/debug/_ext/1360937237/app_public.o
 .data          0x00000000        0x0 build/default/debug/_ext/1360937237/app_public.o
 .bss           0x00000000        0x0 build/default/debug/_ext/1360937237/app_public.o
 .reginfo       0x00000000       0x18 build/default/debug/_ext/1360937237/app_public.o
 .text._appio_putc
                0x00000000        0x8 build/default/debug/_ext/1360937237/app_public.o
 .text._appio_write
                0x00000000        0x8 build/default/debug/_ext/1360937237/app_public.o
 .text._appio_getc
                0x00000000        0x8 build/default/debug/_ext/1360937237/app_public.o
 .text.appSendTimerValToMQ
                0x00000000       0x28 build/default/debug/_ext/1360937237/app_public.o
 .text          0x00000000        0x0 build/default/debug/_ext/1360937237/app.o
 .data          0x00000000        0x0 build/default/debug/_ext/1360937237/app.o
 .bss           0x00000000        0x0 build/default/debug/_ext/1360937237/app.o
 .reginfo       0x00000000       0x18 build/default/debug/_ext/1360937237/app.o
 .text._appio_putc
                0x00000000        0x8 build/default/debug/_ext/1360937237/app.o
 .text._appio_write
                0x00000000        0x8 build/default/debug/_ext/1360937237/app.o
 .text._appio_getc
                0x00000000        0x8 build/default/debug/_ext/1360937237/app.o
 .text          0x00000000        0x0 build/default/debug/_ext/1360937237/main.o
 .data          0x00000000        0x0 build/default/debug/_ext/1360937237/main.o
 .bss           0x00000000        0x0 build/default/debug/_ext/1360937237/main.o
 .reginfo       0x00000000       0x18 build/default/debug/_ext/1360937237/main.o
 .text._appio_putc
                0x00000000        0x8 build/default/debug/_ext/1360937237/main.o
 .text._appio_write
                0x00000000        0x8 build/default/debug/_ext/1360937237/main.o
 .text._appio_getc
                0x00000000        0x8 build/default/debug/_ext/1360937237/main.o
 .text          0x00000000        0x0 build/default/debug/_ext/382300584/drv_usart.o
 .data          0x00000000        0x0 build/default/debug/_ext/382300584/drv_usart.o
 .bss           0x00000000        0x0 build/default/debug/_ext/382300584/drv_usart.o
 .reginfo       0x00000000       0x18 build/default/debug/_ext/382300584/drv_usart.o
 .text._appio_putc
                0x00000000        0x8 build/default/debug/_ext/382300584/drv_usart.o
 .text._appio_write
                0x00000000        0x8 build/default/debug/_ext/382300584/drv_usart.o
 .text._appio_getc
                0x00000000        0x8 build/default/debug/_ext/382300584/drv_usart.o
 .text.DRV_USART_Deinitialize
                0x00000000      0x1f8 build/default/debug/_ext/382300584/drv_usart.o
 .text.DRV_USART_Status
                0x00000000       0x78 build/default/debug/_ext/382300584/drv_usart.o
 .text.DRV_USART_Open
                0x00000000      0x20c build/default/debug/_ext/382300584/drv_usart.o
 .text.DRV_USART_ByteTransmitCallbackSet
                0x00000000       0x40 build/default/debug/_ext/382300584/drv_usart.o
 .text.DRV_USART_ByteReceiveCallbackSet
                0x00000000       0x40 build/default/debug/_ext/382300584/drv_usart.o
 .text.DRV_USART_ByteErrorCallbackSet
                0x00000000       0x40 build/default/debug/_ext/382300584/drv_usart.o
 .text._DRV_USART_DriverHandleValidate
                0x00000000       0x28 build/default/debug/_ext/382300584/drv_usart.o
 .text.DRV_USART_Close
                0x00000000       0xcc build/default/debug/_ext/382300584/drv_usart.o
 .text.DRV_USART_ErrorGet
                0x00000000       0x48 build/default/debug/_ext/382300584/drv_usart.o
 .text.DRV_USART_BaudSet
                0x00000000      0x4e0 build/default/debug/_ext/382300584/drv_usart.o
 .text.DRV_USART_LineControlSet
                0x00000000      0x2f4 build/default/debug/_ext/382300584/drv_usart.o
 .text.DRV_USART_ClientStatus
                0x00000000       0x3c build/default/debug/_ext/382300584/drv_usart.o
 .text.DRV_USART_TransferStatus
                0x00000000      0x250 build/default/debug/_ext/382300584/drv_usart.o
 .text._DRV_USART_ClientBufferQueueObjectsRemove
                0x00000000      0x228 build/default/debug/_ext/382300584/drv_usart.o
 .text._DRV_USART_BufferQueueRxTasks
                0x00000000      0x278 build/default/debug/_ext/382300584/drv_usart.o
 .text._DRV_USART_BufferQueueTxTasks
                0x00000000      0x52c build/default/debug/_ext/382300584/drv_usart.o
 .text          0x00000000        0x0 build/default/debug/_ext/382300584/drv_usart_byte_model.o
 .data          0x00000000        0x0 build/default/debug/_ext/382300584/drv_usart_byte_model.o
 .bss           0x00000000        0x0 build/default/debug/_ext/382300584/drv_usart_byte_model.o
 .reginfo       0x00000000       0x18 build/default/debug/_ext/382300584/drv_usart_byte_model.o
 .text._appio_putc
                0x00000000        0x8 build/default/debug/_ext/382300584/drv_usart_byte_model.o
 .text._appio_write
                0x00000000        0x8 build/default/debug/_ext/382300584/drv_usart_byte_model.o
 .text._appio_getc
                0x00000000        0x8 build/default/debug/_ext/382300584/drv_usart_byte_model.o
 .rodata        0x00000000       0xa0 build/default/debug/_ext/382300584/drv_usart_byte_model.o
 .text.DRV_USART_WriteByte
                0x00000000      0x17c build/default/debug/_ext/382300584/drv_usart_byte_model.o
 .text.DRV_USART_ReadByte
                0x00000000      0x13c build/default/debug/_ext/382300584/drv_usart_byte_model.o
 .text.DRV_USART_ReceiverBufferSizeGet
                0x00000000       0x40 build/default/debug/_ext/382300584/drv_usart_byte_model.o
 .text.DRV_USART_TransmitBufferSizeGet
                0x00000000       0x40 build/default/debug/_ext/382300584/drv_usart_byte_model.o
 .text.DRV_USART_ReceiverBufferIsEmpty
                0x00000000       0xec build/default/debug/_ext/382300584/drv_usart_byte_model.o
 .text.DRV_USART_TransmitBufferIsFull
                0x00000000       0xe4 build/default/debug/_ext/382300584/drv_usart_byte_model.o
 .text          0x00000000        0x0 build/default/debug/_ext/1964585049/osal_freertos.o
 .data          0x00000000        0x0 build/default/debug/_ext/1964585049/osal_freertos.o
 .bss           0x00000000        0x0 build/default/debug/_ext/1964585049/osal_freertos.o
 .reginfo       0x00000000       0x18 build/default/debug/_ext/1964585049/osal_freertos.o
 .text._appio_putc
                0x00000000        0x8 build/default/debug/_ext/1964585049/osal_freertos.o
 .text._appio_write
                0x00000000        0x8 build/default/debug/_ext/1964585049/osal_freertos.o
 .text._appio_getc
                0x00000000        0x8 build/default/debug/_ext/1964585049/osal_freertos.o
 .text.OSAL_CRIT_Enter
                0x00000000       0x48 build/default/debug/_ext/1964585049/osal_freertos.o
 .text.OSAL_CRIT_Leave
                0x00000000       0x44 build/default/debug/_ext/1964585049/osal_freertos.o
 .text.OSAL_SEM_Create
                0x00000000       0x94 build/default/debug/_ext/1964585049/osal_freertos.o
 .text.OSAL_SEM_Delete
                0x00000000       0x30 build/default/debug/_ext/1964585049/osal_freertos.o
 .text.OSAL_SEM_Pend
                0x00000000       0x44 build/default/debug/_ext/1964585049/osal_freertos.o
 .text.OSAL_SEM_Post
                0x00000000       0x30 build/default/debug/_ext/1964585049/osal_freertos.o
 .text.OSAL_SEM_PostISR
                0x00000000       0x4c build/default/debug/_ext/1964585049/osal_freertos.o
 .text.OSAL_SEM_GetCount
                0x00000000       0x2c build/default/debug/_ext/1964585049/osal_freertos.o
 .text.OSAL_MUTEX_Delete
                0x00000000       0x3c build/default/debug/_ext/1964585049/osal_freertos.o
 .text.OSAL_MUTEX_Lock
                0x00000000       0x44 build/default/debug/_ext/1964585049/osal_freertos.o
 .text.OSAL_MUTEX_Unlock
                0x00000000       0x30 build/default/debug/_ext/1964585049/osal_freertos.o
 .rodata        0x00000000        0xc build/default/debug/_ext/1964585049/osal_freertos.o
 .text.OSAL_Name
                0x00000000        0xc build/default/debug/_ext/1964585049/osal_freertos.o
 .text.OSAL_Initialize
                0x00000000        0x8 build/default/debug/_ext/1964585049/osal_freertos.o
 .text          0x00000000        0x0 build/default/debug/_ext/207392127/sys_console.o
 .data          0x00000000        0x0 build/default/debug/_ext/207392127/sys_console.o
 .reginfo       0x00000000       0x18 build/default/debug/_ext/207392127/sys_console.o
 .text.SYS_CONSOLE_Deinitialize
                0x00000000       0x44 build/default/debug/_ext/207392127/sys_console.o
 .text.SYS_CONSOLE_Reinitialize
                0x00000000       0x68 build/default/debug/_ext/207392127/sys_console.o
 .text.SYS_CONSOLE_Status
                0x00000000       0x90 build/default/debug/_ext/207392127/sys_console.o
 .text.SYS_CONSOLE_Read
                0x00000000       0x80 build/default/debug/_ext/207392127/sys_console.o
 .text.SYS_CONSOLE_RegisterCallback
                0x00000000       0x4c build/default/debug/_ext/207392127/sys_console.o
 .text.SYS_CONSOLE_Flush
                0x00000000       0x4c build/default/debug/_ext/207392127/sys_console.o
 .text          0x00000000        0x0 build/default/debug/_ext/207392127/sys_console_appio.o
 .reginfo       0x00000000       0x18 build/default/debug/_ext/207392127/sys_console_appio.o
 .text._appio_putc
                0x00000000        0x8 build/default/debug/_ext/207392127/sys_console_appio.o
 .text._appio_write
                0x00000000        0x8 build/default/debug/_ext/207392127/sys_console_appio.o
 .text._appio_getc
                0x00000000        0x8 build/default/debug/_ext/207392127/sys_console_appio.o
 .text          0x00000000        0x0 build/default/debug/_ext/1952159421/sys_debug.o
 .data          0x00000000        0x0 build/default/debug/_ext/1952159421/sys_debug.o
 .reginfo       0x00000000       0x18 build/default/debug/_ext/1952159421/sys_debug.o
 .text._appio_putc
                0x00000000        0x8 build/default/debug/_ext/1952159421/sys_debug.o
 .text._appio_write
                0x00000000        0x8 build/default/debug/_ext/1952159421/sys_debug.o
 .text._appio_getc
                0x00000000        0x8 build/default/debug/_ext/1952159421/sys_debug.o
 .text.SYS_DEBUG_Reinitialize
                0x00000000       0x2c build/default/debug/_ext/1952159421/sys_debug.o
 .text.SYS_DEBUG_Deinitialize
                0x00000000       0x1c build/default/debug/_ext/1952159421/sys_debug.o
 .text.SYS_DEBUG_Tasks
                0x00000000        0x8 build/default/debug/_ext/1952159421/sys_debug.o
 .text.SYS_DEBUG_Status
                0x00000000        0xc build/default/debug/_ext/1952159421/sys_debug.o
 .text.SYS_DEBUG_ErrorLevelSet
                0x00000000        0x8 build/default/debug/_ext/1952159421/sys_debug.o
 .text          0x00000000        0x0 build/default/debug/_ext/1921105363/sys_devcon.o
 .data          0x00000000        0x0 build/default/debug/_ext/1921105363/sys_devcon.o
 .bss           0x00000000        0x0 build/default/debug/_ext/1921105363/sys_devcon.o
 .reginfo       0x00000000       0x18 build/default/debug/_ext/1921105363/sys_devcon.o
 .text._appio_putc
                0x00000000        0x8 build/default/debug/_ext/1921105363/sys_devcon.o
 .text._appio_write
                0x00000000        0x8 build/default/debug/_ext/1921105363/sys_devcon.o
 .text._appio_getc
                0x00000000        0x8 build/default/debug/_ext/1921105363/sys_devcon.o
 .text.SYS_DEVCON_Reinitialize
                0x00000000       0x10 build/default/debug/_ext/1921105363/sys_devcon.o
 .text.SYS_DEVCON_Deinitialize
                0x00000000        0x8 build/default/debug/_ext/1921105363/sys_devcon.o
 .text.SYS_DEVCON_Status
                0x00000000        0x8 build/default/debug/_ext/1921105363/sys_devcon.o
 .text.SYS_DEVCON_JTAGEnable
                0x00000000       0x18 build/default/debug/_ext/1921105363/sys_devcon.o
 .text.SYS_DEVCON_TraceEnable
                0x00000000       0x18 build/default/debug/_ext/1921105363/sys_devcon.o
 .text.SYS_DEVCON_TraceDisable
                0x00000000       0x1c build/default/debug/_ext/1921105363/sys_devcon.o
 .text.SYS_DEVCON_PowerModeEnter
                0x00000000       0x54 build/default/debug/_ext/1921105363/sys_devcon.o
 .text          0x00000000        0x0 build/default/debug/_ext/1921105363/sys_devcon_pic32mx.o
 .data          0x00000000        0x0 build/default/debug/_ext/1921105363/sys_devcon_pic32mx.o
 .bss           0x00000000        0x0 build/default/debug/_ext/1921105363/sys_devcon_pic32mx.o
 .reginfo       0x00000000       0x18 build/default/debug/_ext/1921105363/sys_devcon_pic32mx.o
 .text._appio_putc
                0x00000000        0x8 build/default/debug/_ext/1921105363/sys_devcon_pic32mx.o
 .text._appio_write
                0x00000000        0x8 build/default/debug/_ext/1921105363/sys_devcon_pic32mx.o
 .text._appio_getc
                0x00000000        0x8 build/default/debug/_ext/1921105363/sys_devcon_pic32mx.o
 .text          0x00000000        0x0 build/default/debug/_ext/993332121/sys_int_pic32.o
 .data          0x00000000        0x0 build/default/debug/_ext/993332121/sys_int_pic32.o
 .bss           0x00000000        0x0 build/default/debug/_ext/993332121/sys_int_pic32.o
 .reginfo       0x00000000       0x18 build/default/debug/_ext/993332121/sys_int_pic32.o
 .text._appio_putc
                0x00000000        0x8 build/default/debug/_ext/993332121/sys_int_pic32.o
 .text._appio_write
                0x00000000        0x8 build/default/debug/_ext/993332121/sys_int_pic32.o
 .text._appio_getc
                0x00000000        0x8 build/default/debug/_ext/993332121/sys_int_pic32.o
 .text.SYS_INT_StatusGetAndDisable
                0x00000000       0x1c build/default/debug/_ext/993332121/sys_int_pic32.o
 .text.SYS_INT_StatusRestore
                0x00000000       0x1c build/default/debug/_ext/993332121/sys_int_pic32.o
 .text.SYS_INT_Disable
                0x00000000       0x20 build/default/debug/_ext/993332121/sys_int_pic32.o
 .text.SYS_INT_ExternalInterruptTriggerSet
                0x00000000       0x34 build/default/debug/_ext/993332121/sys_int_pic32.o
 .text          0x00000000        0x0 build/default/debug/_ext/1458882252/croutine.o
 .data          0x00000000        0x0 build/default/debug/_ext/1458882252/croutine.o
 .bss           0x00000000        0x0 build/default/debug/_ext/1458882252/croutine.o
 .reginfo       0x00000000       0x18 build/default/debug/_ext/1458882252/croutine.o
 .text._appio_putc
                0x00000000        0x8 build/default/debug/_ext/1458882252/croutine.o
 .text._appio_write
                0x00000000        0x8 build/default/debug/_ext/1458882252/croutine.o
 .text._appio_getc
                0x00000000        0x8 build/default/debug/_ext/1458882252/croutine.o
 .text          0x00000000        0x0 build/default/debug/_ext/1458882252/list.o
 .data          0x00000000        0x0 build/default/debug/_ext/1458882252/list.o
 .bss           0x00000000        0x0 build/default/debug/_ext/1458882252/list.o
 .reginfo       0x00000000       0x18 build/default/debug/_ext/1458882252/list.o
 .text._appio_putc
                0x00000000        0x8 build/default/debug/_ext/1458882252/list.o
 .text._appio_write
                0x00000000        0x8 build/default/debug/_ext/1458882252/list.o
 .text._appio_getc
                0x00000000        0x8 build/default/debug/_ext/1458882252/list.o
 .text          0x00000000        0x0 build/default/debug/_ext/1458882252/queue.o
 .data          0x00000000        0x0 build/default/debug/_ext/1458882252/queue.o
 .bss           0x00000000        0x0 build/default/debug/_ext/1458882252/queue.o
 .reginfo       0x00000000       0x18 build/default/debug/_ext/1458882252/queue.o
 .text._appio_putc
                0x00000000        0x8 build/default/debug/_ext/1458882252/queue.o
 .text._appio_write
                0x00000000        0x8 build/default/debug/_ext/1458882252/queue.o
 .text._appio_getc
                0x00000000        0x8 build/default/debug/_ext/1458882252/queue.o
 .text.xQueueCreateCountingSemaphore
                0x00000000       0x34 build/default/debug/_ext/1458882252/queue.o
 .text.xQueueGiveFromISR
                0x00000000       0xc4 build/default/debug/_ext/1458882252/queue.o
 .text.xQueueReceiveFromISR
                0x00000000       0xd4 build/default/debug/_ext/1458882252/queue.o
 .text.xQueuePeekFromISR
                0x00000000       0x74 build/default/debug/_ext/1458882252/queue.o
 .text.uxQueueMessagesWaiting
                0x00000000       0x34 build/default/debug/_ext/1458882252/queue.o
 .text.uxQueueSpacesAvailable
                0x00000000       0x38 build/default/debug/_ext/1458882252/queue.o
 .text.uxQueueMessagesWaitingFromISR
                0x00000000        0xc build/default/debug/_ext/1458882252/queue.o
 .text.vQueueDelete
                0x00000000       0x1c build/default/debug/_ext/1458882252/queue.o
 .text.xQueueIsQueueEmptyFromISR
                0x00000000        0xc build/default/debug/_ext/1458882252/queue.o
 .text.xQueueIsQueueFullFromISR
                0x00000000       0x14 build/default/debug/_ext/1458882252/queue.o
 .text          0x00000000        0x0 build/default/debug/_ext/1458882252/tasks.o
 .data          0x00000000        0x0 build/default/debug/_ext/1458882252/tasks.o
 .bss           0x00000000        0x0 build/default/debug/_ext/1458882252/tasks.o
 .reginfo       0x00000000       0x18 build/default/debug/_ext/1458882252/tasks.o
 .text._appio_putc
                0x00000000        0x8 build/default/debug/_ext/1458882252/tasks.o
 .text._appio_write
                0x00000000        0x8 build/default/debug/_ext/1458882252/tasks.o
 .text._appio_getc
                0x00000000        0x8 build/default/debug/_ext/1458882252/tasks.o
 .text.uxTaskPriorityGetFromISR
                0x00000000       0x3c build/default/debug/_ext/1458882252/tasks.o
 .text.prvTaskIsTaskSuspended
                0x00000000       0x38 build/default/debug/_ext/1458882252/tasks.o
 .text.xTaskResumeFromISR
                0x00000000       0xdc build/default/debug/_ext/1458882252/tasks.o
 .text.vTaskEndScheduler
                0x00000000       0x3c build/default/debug/_ext/1458882252/tasks.o
 .text.xTaskGetTickCountFromISR
                0x00000000        0xc build/default/debug/_ext/1458882252/tasks.o
 .text.uxTaskGetNumberOfTasks
                0x00000000        0xc build/default/debug/_ext/1458882252/tasks.o
 .text.xTaskRemoveFromUnorderedEventList
                0x00000000       0x9c build/default/debug/_ext/1458882252/tasks.o
 .text.vTaskPlaceOnUnorderedEventList
                0x00000000       0xa4 build/default/debug/_ext/1458882252/tasks.o
 .text.xTaskGetCurrentTaskHandle
                0x00000000        0xc build/default/debug/_ext/1458882252/tasks.o
 .text.vTaskDelete
                0x00000000      0x110 build/default/debug/_ext/1458882252/tasks.o
 .text.uxTaskPriorityGet
                0x00000000       0x38 build/default/debug/_ext/1458882252/tasks.o
 .text.vTaskPrioritySet
                0x00000000      0x15c build/default/debug/_ext/1458882252/tasks.o
 .text.vTaskSuspend
                0x00000000      0x138 build/default/debug/_ext/1458882252/tasks.o
 .text.vTaskResume
                0x00000000       0xc4 build/default/debug/_ext/1458882252/tasks.o
 .text.vTaskDelayUntil
                0x00000000       0xd8 build/default/debug/_ext/1458882252/tasks.o
 .text.uxTaskResetEventItemValue
                0x00000000       0x24 build/default/debug/_ext/1458882252/tasks.o
 .text.ulTaskNotifyTake
                0x00000000      0x128 build/default/debug/_ext/1458882252/tasks.o
 .text.xTaskNotifyWait
                0x00000000      0x160 build/default/debug/_ext/1458882252/tasks.o
 .text.xTaskGenericNotify
                0x00000000      0x168 build/default/debug/_ext/1458882252/tasks.o
 .text.xTaskGenericNotifyFromISR
                0x00000000      0x198 build/default/debug/_ext/1458882252/tasks.o
 .text.vTaskNotifyGiveFromISR
                0x00000000       0xf8 build/default/debug/_ext/1458882252/tasks.o
 .text.xTaskNotifyStateClear
                0x00000000       0x5c build/default/debug/_ext/1458882252/tasks.o
 .text          0x00000000        0x0 build/default/debug/_ext/1458882252/timers.o
 .data          0x00000000        0x0 build/default/debug/_ext/1458882252/timers.o
 .reginfo       0x00000000       0x18 build/default/debug/_ext/1458882252/timers.o
 .text._appio_putc
                0x00000000        0x8 build/default/debug/_ext/1458882252/timers.o
 .text._appio_write
                0x00000000        0x8 build/default/debug/_ext/1458882252/timers.o
 .text._appio_getc
                0x00000000        0x8 build/default/debug/_ext/1458882252/timers.o
 .text.pcTimerGetTimerName
                0x00000000        0x8 build/default/debug/_ext/1458882252/timers.o
 .text.xTimerIsTimerActive
                0x00000000       0x34 build/default/debug/_ext/1458882252/timers.o
 .text.pvTimerGetTimerID
                0x00000000       0x30 build/default/debug/_ext/1458882252/timers.o
 .text.vTimerSetTimerID
                0x00000000       0x38 build/default/debug/_ext/1458882252/timers.o
 .text          0x00000000        0x0 build/default/debug/_ext/1458882252/event_groups.o
 .data          0x00000000        0x0 build/default/debug/_ext/1458882252/event_groups.o
 .bss           0x00000000        0x0 build/default/debug/_ext/1458882252/event_groups.o
 .reginfo       0x00000000       0x18 build/default/debug/_ext/1458882252/event_groups.o
 .text._appio_putc
                0x00000000        0x8 build/default/debug/_ext/1458882252/event_groups.o
 .text._appio_write
                0x00000000        0x8 build/default/debug/_ext/1458882252/event_groups.o
 .text._appio_getc
                0x00000000        0x8 build/default/debug/_ext/1458882252/event_groups.o
 .text.xEventGroupCreate
                0x00000000       0x3c build/default/debug/_ext/1458882252/event_groups.o
 .text.xEventGroupWaitBits
                0x00000000      0x148 build/default/debug/_ext/1458882252/event_groups.o
 .text.xEventGroupClearBits
                0x00000000       0x50 build/default/debug/_ext/1458882252/event_groups.o
 .text.xEventGroupGetBitsFromISR
                0x00000000       0x34 build/default/debug/_ext/1458882252/event_groups.o
 .text.xEventGroupSetBits
                0x00000000       0xfc build/default/debug/_ext/1458882252/event_groups.o
 .text.xEventGroupSync
                0x00000000      0x110 build/default/debug/_ext/1458882252/event_groups.o
 .text.vEventGroupDelete
                0x00000000       0x58 build/default/debug/_ext/1458882252/event_groups.o
 .text.vEventGroupSetBitsCallback
                0x00000000       0x1c build/default/debug/_ext/1458882252/event_groups.o
 .text.vEventGroupClearBitsCallback
                0x00000000       0x1c build/default/debug/_ext/1458882252/event_groups.o
 .text          0x00000000        0x0 build/default/debug/_ext/628943767/heap_1.o
 .data          0x00000000        0x0 build/default/debug/_ext/628943767/heap_1.o
 .reginfo       0x00000000       0x18 build/default/debug/_ext/628943767/heap_1.o
 .text._appio_putc
                0x00000000        0x8 build/default/debug/_ext/628943767/heap_1.o
 .text._appio_write
                0x00000000        0x8 build/default/debug/_ext/628943767/heap_1.o
 .text._appio_getc
                0x00000000        0x8 build/default/debug/_ext/628943767/heap_1.o
 .text.vPortInitialiseBlocks
                0x00000000        0x8 build/default/debug/_ext/628943767/heap_1.o
 .text.xPortGetFreeHeapSize
                0x00000000       0x14 build/default/debug/_ext/628943767/heap_1.o
 .text          0x00000000        0x0 build/default/debug/_ext/1338673686/port.o
 .data          0x00000000        0x0 build/default/debug/_ext/1338673686/port.o
 .reginfo       0x00000000       0x18 build/default/debug/_ext/1338673686/port.o
 .text._appio_putc
                0x00000000        0x8 build/default/debug/_ext/1338673686/port.o
 .text._appio_write
                0x00000000        0x8 build/default/debug/_ext/1338673686/port.o
 .text._appio_getc
                0x00000000        0x8 build/default/debug/_ext/1338673686/port.o
 .text.vPortEndScheduler
                0x00000000        0x8 build/default/debug/_ext/1338673686/port.o
 .data          0x00000000        0x0 build/default/debug/_ext/1338673686/port_asm.o
 .bss           0x00000000        0x0 build/default/debug/_ext/1338673686/port_asm.o
 .reginfo       0x00000000       0x18 build/default/debug/_ext/1338673686/port_asm.o
 .text          0x00000000        0x0 build/default/debug/_ext/639803181/sys_clk_static.o
 .data          0x00000000        0x0 build/default/debug/_ext/639803181/sys_clk_static.o
 .bss           0x00000000        0x0 build/default/debug/_ext/639803181/sys_clk_static.o
 .reginfo       0x00000000       0x18 build/default/debug/_ext/639803181/sys_clk_static.o
 .text._appio_putc
                0x00000000        0x8 build/default/debug/_ext/639803181/sys_clk_static.o
 .text._appio_write
                0x00000000        0x8 build/default/debug/_ext/639803181/sys_clk_static.o
 .text._appio_getc
                0x00000000        0x8 build/default/debug/_ext/639803181/sys_clk_static.o
 .text.SYS_CLK_PeripheralFrequencyGet
                0x00000000        0xc build/default/debug/_ext/639803181/sys_clk_static.o
 .text.SYS_CLK_ReferenceClockFrequencyGet
                0x00000000        0x8 build/default/debug/_ext/639803181/sys_clk_static.o
 .text.SYS_CLK_SecondaryOscillatorEnable
                0x00000000       0x4c build/default/debug/_ext/639803181/sys_clk_static.o
 .text.SYS_CLK_SecondaryOscillatorDisable
                0x00000000       0x4c build/default/debug/_ext/639803181/sys_clk_static.o
 .text.SYS_CLK_SecondaryOscillatorIsEnabled
                0x00000000       0x10 build/default/debug/_ext/639803181/sys_clk_static.o
 .text          0x00000000        0x0 build/default/debug/_ext/822048611/sys_ports_static.o
 .data          0x00000000        0x0 build/default/debug/_ext/822048611/sys_ports_static.o
 .bss           0x00000000        0x0 build/default/debug/_ext/822048611/sys_ports_static.o
 .reginfo       0x00000000       0x18 build/default/debug/_ext/822048611/sys_ports_static.o
 .text._appio_putc
                0x00000000        0x8 build/default/debug/_ext/822048611/sys_ports_static.o
 .text._appio_write
                0x00000000        0x8 build/default/debug/_ext/822048611/sys_ports_static.o
 .text._appio_getc
                0x00000000        0x8 build/default/debug/_ext/822048611/sys_ports_static.o
 .text.SYS_PORTS_Read
                0x00000000       0x38 build/default/debug/_ext/822048611/sys_ports_static.o
 .text.SYS_PORTS_Write
                0x00000000       0x2c build/default/debug/_ext/822048611/sys_ports_static.o
 .text.SYS_PORTS_Set
                0x00000000       0x38 build/default/debug/_ext/822048611/sys_ports_static.o
 .text.SYS_PORTS_Clear
                0x00000000       0x34 build/default/debug/_ext/822048611/sys_ports_static.o
 .text.SYS_PORTS_DirectionSelect
                0x00000000       0x6c build/default/debug/_ext/822048611/sys_ports_static.o
 .text.SYS_PORTS_DirectionGet
                0x00000000       0x38 build/default/debug/_ext/822048611/sys_ports_static.o
 .text.SYS_PORTS_Toggle
                0x00000000       0x34 build/default/debug/_ext/822048611/sys_ports_static.o
 .text.SYS_PORTS_OpenDrainEnable
                0x00000000       0x34 build/default/debug/_ext/822048611/sys_ports_static.o
 .text.SYS_PORTS_OpenDrainDisable
                0x00000000       0x34 build/default/debug/_ext/822048611/sys_ports_static.o
 .text.SYS_PORTS_ChangeNotificationGlobalEnable
                0x00000000       0x1c build/default/debug/_ext/822048611/sys_ports_static.o
 .text.SYS_PORTS_ChangeNotificationGlobalDisable
                0x00000000       0x1c build/default/debug/_ext/822048611/sys_ports_static.o
 .text.SYS_PORTS_GlobalChangeNotificationDisable
                0x00000000       0x1c build/default/debug/_ext/822048611/sys_ports_static.o
 .text.SYS_PORTS_ChangeNotificationEnable
                0x00000000       0x78 build/default/debug/_ext/822048611/sys_ports_static.o
 .text.SYS_PORTS_ChangeNotificationDisable
                0x00000000       0x20 build/default/debug/_ext/822048611/sys_ports_static.o
 .text.SYS_PORTS_ChangeNotificationInIdleModeEnable
                0x00000000       0x1c build/default/debug/_ext/822048611/sys_ports_static.o
 .text.SYS_PORTS_ChangeNotificationInIdleModeDisable
                0x00000000       0x1c build/default/debug/_ext/822048611/sys_ports_static.o
 .text.SYS_PORTS_ChangeNotificationPullUpEnable
                0x00000000       0x20 build/default/debug/_ext/822048611/sys_ports_static.o
 .text.SYS_PORTS_ChangeNotificationPullUpDisable
                0x00000000       0x20 build/default/debug/_ext/822048611/sys_ports_static.o
 .text.SYS_PORTS_PinModeSelect
                0x00000000       0x38 build/default/debug/_ext/822048611/sys_ports_static.o
 .text.SYS_PORTS_PinWrite
                0x00000000       0x70 build/default/debug/_ext/822048611/sys_ports_static.o
 .text.SYS_PORTS_PinRead
                0x00000000       0x44 build/default/debug/_ext/822048611/sys_ports_static.o
 .text.SYS_PORTS_PinToggle
                0x00000000       0x38 build/default/debug/_ext/822048611/sys_ports_static.o
 .text.SYS_PORTS_PinSet
                0x00000000       0x38 build/default/debug/_ext/822048611/sys_ports_static.o
 .text.SYS_PORTS_PinClear
                0x00000000       0x38 build/default/debug/_ext/822048611/sys_ports_static.o
 .text.SYS_PORTS_PinDirectionSelect
                0x00000000       0x78 build/default/debug/_ext/822048611/sys_ports_static.o
 .text.SYS_PORTS_PinOpenDrainEnable
                0x00000000       0x38 build/default/debug/_ext/822048611/sys_ports_static.o
 .text.SYS_PORTS_PinOpenDrainDisable
                0x00000000       0x38 build/default/debug/_ext/822048611/sys_ports_static.o
 .text.SYS_PORTS_RemapInput
                0x00000000        0x8 build/default/debug/_ext/822048611/sys_ports_static.o
 .text.SYS_PORTS_RemapOutput
                0x00000000        0x8 build/default/debug/_ext/822048611/sys_ports_static.o
 .text          0x00000000        0x0 build/default/debug/_ext/1688732426/system_init.o
 .data          0x00000000        0x0 build/default/debug/_ext/1688732426/system_init.o
 .reginfo       0x00000000       0x18 build/default/debug/_ext/1688732426/system_init.o
 .text._appio_putc
                0x00000000        0x8 build/default/debug/_ext/1688732426/system_init.o
 .text._appio_write
                0x00000000        0x8 build/default/debug/_ext/1688732426/system_init.o
 .text._appio_getc
                0x00000000        0x8 build/default/debug/_ext/1688732426/system_init.o
 .text          0x00000000        0x0 build/default/debug/_ext/1688732426/system_interrupt.o
 .data          0x00000000        0x0 build/default/debug/_ext/1688732426/system_interrupt.o
 .bss           0x00000000        0x0 build/default/debug/_ext/1688732426/system_interrupt.o
 .reginfo       0x00000000       0x18 build/default/debug/_ext/1688732426/system_interrupt.o
 .text._appio_putc
                0x00000000        0x8 build/default/debug/_ext/1688732426/system_interrupt.o
 .text._appio_write
                0x00000000        0x8 build/default/debug/_ext/1688732426/system_interrupt.o
 .text._appio_getc
                0x00000000        0x8 build/default/debug/_ext/1688732426/system_interrupt.o
 .text          0x00000000        0x0 build/default/debug/_ext/1688732426/system_exceptions.o
 .data          0x00000000        0x0 build/default/debug/_ext/1688732426/system_exceptions.o
 .bss           0x00000000        0x0 build/default/debug/_ext/1688732426/system_exceptions.o
 .reginfo       0x00000000       0x18 build/default/debug/_ext/1688732426/system_exceptions.o
 .text._appio_putc
                0x00000000        0x8 build/default/debug/_ext/1688732426/system_exceptions.o
 .text._appio_write
                0x00000000        0x8 build/default/debug/_ext/1688732426/system_exceptions.o
 .text._appio_getc
                0x00000000        0x8 build/default/debug/_ext/1688732426/system_exceptions.o
 .text          0x00000000        0x0 build/default/debug/_ext/1688732426/system_tasks.o
 .data          0x00000000        0x0 build/default/debug/_ext/1688732426/system_tasks.o
 .bss           0x00000000        0x0 build/default/debug/_ext/1688732426/system_tasks.o
 .reginfo       0x00000000       0x18 build/default/debug/_ext/1688732426/system_tasks.o
 .text._appio_putc
                0x00000000        0x8 build/default/debug/_ext/1688732426/system_tasks.o
 .text._appio_write
                0x00000000        0x8 build/default/debug/_ext/1688732426/system_tasks.o
 .text._appio_getc
                0x00000000        0x8 build/default/debug/_ext/1688732426/system_tasks.o
 .text          0x00000000        0x0 build/default/debug/_ext/1688732426/system_interrupt_a.o
 .data          0x00000000        0x0 build/default/debug/_ext/1688732426/system_interrupt_a.o
 .bss           0x00000000        0x0 build/default/debug/_ext/1688732426/system_interrupt_a.o
 .reginfo       0x00000000       0x18 build/default/debug/_ext/1688732426/system_interrupt_a.o
 .text          0x00000000        0x0 build/default/debug/_ext/1688732426/rtos_hooks.o
 .data          0x00000000        0x0 build/default/debug/_ext/1688732426/rtos_hooks.o
 .bss           0x00000000        0x0 build/default/debug/_ext/1688732426/rtos_hooks.o
 .reginfo       0x00000000       0x18 build/default/debug/_ext/1688732426/rtos_hooks.o
 .text._appio_putc
                0x00000000        0x8 build/default/debug/_ext/1688732426/rtos_hooks.o
 .text._appio_write
                0x00000000        0x8 build/default/debug/_ext/1688732426/rtos_hooks.o
 .text._appio_getc
                0x00000000        0x8 build/default/debug/_ext/1688732426/rtos_hooks.o
 .text          0x00000000        0x0 /home/john/MPLAB-X/XC32_Compiler/bin/bin/../../lib/gcc/pic32mx/4.8.3/../../../../pic32mx/lib/./proc/32MX795F512L/default_isr_vectors.o
 .data          0x00000000        0x0 /home/john/MPLAB-X/XC32_Compiler/bin/bin/../../lib/gcc/pic32mx/4.8.3/../../../../pic32mx/lib/./proc/32MX795F512L/default_isr_vectors.o
 .bss           0x00000000        0x0 /home/john/MPLAB-X/XC32_Compiler/bin/bin/../../lib/gcc/pic32mx/4.8.3/../../../../pic32mx/lib/./proc/32MX795F512L/default_isr_vectors.o
 .reginfo       0x00000000       0x18 /home/john/MPLAB-X/XC32_Compiler/bin/bin/../../lib/gcc/pic32mx/4.8.3/../../../../pic32mx/lib/./proc/32MX795F512L/default_isr_vectors.o
 .discard       0x00000000       0xd0 /home/john/MPLAB-X/XC32_Compiler/bin/bin/../../lib/gcc/pic32mx/4.8.3/../../../../pic32mx/lib/./proc/32MX795F512L/default_isr_vectors.o
 .data          0x00000000        0x0 /home/john/MPLAB-X/XC32_Compiler/bin/bin/../../lib/gcc/pic32mx/4.8.3/../../../../pic32mx/lib/pic32_software_reset.o
 .bss           0x00000000        0x0 /home/john/MPLAB-X/XC32_Compiler/bin/bin/../../lib/gcc/pic32mx/4.8.3/../../../../pic32mx/lib/pic32_software_reset.o
 .reginfo       0x00000000       0x18 /home/john/MPLAB-X/XC32_Compiler/bin/bin/../../lib/gcc/pic32mx/4.8.3/../../../../pic32mx/lib/pic32_software_reset.o
 .text          0x00000000        0x0 /home/john/MPLAB-X/XC32_Compiler/bin/bin/../../lib/gcc/pic32mx/4.8.3/../../../../pic32mx/lib/./proc/32MX795F512L/processor.o
 .data          0x00000000        0x0 /home/john/MPLAB-X/XC32_Compiler/bin/bin/../../lib/gcc/pic32mx/4.8.3/../../../../pic32mx/lib/./proc/32MX795F512L/processor.o
 .bss           0x00000000        0x0 /home/john/MPLAB-X/XC32_Compiler/bin/bin/../../lib/gcc/pic32mx/4.8.3/../../../../pic32mx/lib/./proc/32MX795F512L/processor.o
 .reginfo       0x00000000       0x18 /home/john/MPLAB-X/XC32_Compiler/bin/bin/../../lib/gcc/pic32mx/4.8.3/../../../../pic32mx/lib/./proc/32MX795F512L/processor.o
 .data          0x00000000        0x0 /home/john/MPLAB-X/XC32_Compiler/bin/bin/../../lib/gcc/pic32mx/4.8.3/../../../../pic32mx/lib/libpic32.a(memcpy.o)
 .bss           0x00000000        0x0 /home/john/MPLAB-X/XC32_Compiler/bin/bin/../../lib/gcc/pic32mx/4.8.3/../../../../pic32mx/lib/libpic32.a(memcpy.o)
 .reginfo       0x00000000       0x18 /home/john/MPLAB-X/XC32_Compiler/bin/bin/../../lib/gcc/pic32mx/4.8.3/../../../../pic32mx/lib/libpic32.a(memcpy.o)
 .data          0x00000000        0x0 /home/john/MPLAB-X/XC32_Compiler/bin/bin/../../lib/gcc/pic32mx/4.8.3/../../../../pic32mx/lib/libpic32.a(memset.o)
 .bss           0x00000000        0x0 /home/john/MPLAB-X/XC32_Compiler/bin/bin/../../lib/gcc/pic32mx/4.8.3/../../../../pic32mx/lib/libpic32.a(memset.o)
 .reginfo       0x00000000       0x18 /home/john/MPLAB-X/XC32_Compiler/bin/bin/../../lib/gcc/pic32mx/4.8.3/../../../../pic32mx/lib/libpic32.a(memset.o)
 .data          0x00000000        0x0 /home/john/MPLAB-X/XC32_Compiler/bin/bin/../../lib/gcc/pic32mx/4.8.3/../../../../pic32mx/lib/libpic32.a(strcpy.o)
 .bss           0x00000000        0x0 /home/john/MPLAB-X/XC32_Compiler/bin/bin/../../lib/gcc/pic32mx/4.8.3/../../../../pic32mx/lib/libpic32.a(strcpy.o)
 .reginfo       0x00000000       0x18 /home/john/MPLAB-X/XC32_Compiler/bin/bin/../../lib/gcc/pic32mx/4.8.3/../../../../pic32mx/lib/libpic32.a(strcpy.o)
 .data          0x00000000        0x0 /home/john/MPLAB-X/XC32_Compiler/bin/bin/../../lib/gcc/pic32mx/4.8.3/../../../../pic32mx/lib/libpic32.a(strlen.o)
 .bss           0x00000000        0x0 /home/john/MPLAB-X/XC32_Compiler/bin/bin/../../lib/gcc/pic32mx/4.8.3/../../../../pic32mx/lib/libpic32.a(strlen.o)
 .reginfo       0x00000000       0x18 /home/john/MPLAB-X/XC32_Compiler/bin/bin/../../lib/gcc/pic32mx/4.8.3/../../../../pic32mx/lib/libpic32.a(strlen.o)
 .text          0x00000000        0x0 /home/john/MPLAB-X/XC32_Compiler/bin/bin/../../lib/gcc/pic32mx/4.8.3/../../../../pic32mx/lib/libpic32.a(default-bootstrap-exception-handler.o)
 .data          0x00000000        0x0 /home/john/MPLAB-X/XC32_Compiler/bin/bin/../../lib/gcc/pic32mx/4.8.3/../../../../pic32mx/lib/libpic32.a(default-bootstrap-exception-handler.o)
 .bss           0x00000000        0x0 /home/john/MPLAB-X/XC32_Compiler/bin/bin/../../lib/gcc/pic32mx/4.8.3/../../../../pic32mx/lib/libpic32.a(default-bootstrap-exception-handler.o)
 .reginfo       0x00000000       0x18 /home/john/MPLAB-X/XC32_Compiler/bin/bin/../../lib/gcc/pic32mx/4.8.3/../../../../pic32mx/lib/libpic32.a(default-bootstrap-exception-handler.o)
 .text          0x00000000        0x0 /home/john/MPLAB-X/XC32_Compiler/bin/bin/../../lib/gcc/pic32mx/4.8.3/../../../../pic32mx/lib/libpic32.a(default-on-reset.o)
 .data          0x00000000        0x0 /home/john/MPLAB-X/XC32_Compiler/bin/bin/../../lib/gcc/pic32mx/4.8.3/../../../../pic32mx/lib/libpic32.a(default-on-reset.o)
 .bss           0x00000000        0x0 /home/john/MPLAB-X/XC32_Compiler/bin/bin/../../lib/gcc/pic32mx/4.8.3/../../../../pic32mx/lib/libpic32.a(default-on-reset.o)
 .reginfo       0x00000000       0x18 /home/john/MPLAB-X/XC32_Compiler/bin/bin/../../lib/gcc/pic32mx/4.8.3/../../../../pic32mx/lib/libpic32.a(default-on-reset.o)
 .text          0x00000000        0x0 /home/john/MPLAB-X/XC32_Compiler/bin/bin/../../lib/gcc/pic32mx/4.8.3/../../../../pic32mx/lib/libpic32.a(default-on-bootstrap.o)
 .data          0x00000000        0x0 /home/john/MPLAB-X/XC32_Compiler/bin/bin/../../lib/gcc/pic32mx/4.8.3/../../../../pic32mx/lib/libpic32.a(default-on-bootstrap.o)
 .bss           0x00000000        0x0 /home/john/MPLAB-X/XC32_Compiler/bin/bin/../../lib/gcc/pic32mx/4.8.3/../../../../pic32mx/lib/libpic32.a(default-on-bootstrap.o)
 .reginfo       0x00000000       0x18 /home/john/MPLAB-X/XC32_Compiler/bin/bin/../../lib/gcc/pic32mx/4.8.3/../../../../pic32mx/lib/libpic32.a(default-on-bootstrap.o)
 .data          0x00000000        0x0 /home/john/MPLAB-X/XC32_Compiler/bin/bin/../../lib/gcc/pic32mx/4.8.3/../../../../pic32mx/lib/libpic32.a(default-nmi-handler.o)
 .bss           0x00000000        0x0 /home/john/MPLAB-X/XC32_Compiler/bin/bin/../../lib/gcc/pic32mx/4.8.3/../../../../pic32mx/lib/libpic32.a(default-nmi-handler.o)
 .reginfo       0x00000000       0x18 /home/john/MPLAB-X/XC32_Compiler/bin/bin/../../lib/gcc/pic32mx/4.8.3/../../../../pic32mx/lib/libpic32.a(default-nmi-handler.o)
 .text          0x00000000        0x0 /home/john/MPLAB-X/XC32_Compiler/bin/bin/../../lib/gcc/pic32mx/4.8.3/../../../../pic32mx/lib/libpic32.a(general-exception.o)
 .data          0x00000000        0x0 /home/john/MPLAB-X/XC32_Compiler/bin/bin/../../lib/gcc/pic32mx/4.8.3/../../../../pic32mx/lib/libpic32.a(general-exception.o)
 .bss           0x00000000        0x0 /home/john/MPLAB-X/XC32_Compiler/bin/bin/../../lib/gcc/pic32mx/4.8.3/../../../../pic32mx/lib/libpic32.a(general-exception.o)
 .reginfo       0x00000000       0x18 /home/john/MPLAB-X/XC32_Compiler/bin/bin/../../lib/gcc/pic32mx/4.8.3/../../../../pic32mx/lib/libpic32.a(general-exception.o)
 .text          0x00000000        0x0 /home/john/MPLAB-X/XC32_Compiler/bin/bin/../../lib/gcc/pic32mx/4.8.3/../../../../pic32mx/lib/libpic32.a(vector0.o)
 .data          0x00000000        0x0 /home/john/MPLAB-X/XC32_Compiler/bin/bin/../../lib/gcc/pic32mx/4.8.3/../../../../pic32mx/lib/libpic32.a(vector0.o)
 .bss           0x00000000        0x0 /home/john/MPLAB-X/XC32_Compiler/bin/bin/../../lib/gcc/pic32mx/4.8.3/../../../../pic32mx/lib/libpic32.a(vector0.o)
 .reginfo       0x00000000       0x18 /home/john/MPLAB-X/XC32_Compiler/bin/bin/../../lib/gcc/pic32mx/4.8.3/../../../../pic32mx/lib/libpic32.a(vector0.o)
 .text          0x00000000        0x0 /home/john/MPLAB-X/XC32_Compiler/bin/bin/../../lib/gcc/pic32mx/4.8.3/../../../../pic32mx/lib/libpic32.a(vector2.o)
 .data          0x00000000        0x0 /home/john/MPLAB-X/XC32_Compiler/bin/bin/../../lib/gcc/pic32mx/4.8.3/../../../../pic32mx/lib/libpic32.a(vector2.o)
 .bss           0x00000000        0x0 /home/john/MPLAB-X/XC32_Compiler/bin/bin/../../lib/gcc/pic32mx/4.8.3/../../../../pic32mx/lib/libpic32.a(vector2.o)
 .reginfo       0x00000000       0x18 /home/john/MPLAB-X/XC32_Compiler/bin/bin/../../lib/gcc/pic32mx/4.8.3/../../../../pic32mx/lib/libpic32.a(vector2.o)
 .text          0x00000000        0x0 /home/john/MPLAB-X/XC32_Compiler/bin/bin/../../lib/gcc/pic32mx/4.8.3/../../../../pic32mx/lib/libpic32.a(vector3.o)
 .data          0x00000000        0x0 /home/john/MPLAB-X/XC32_Compiler/bin/bin/../../lib/gcc/pic32mx/4.8.3/../../../../pic32mx/lib/libpic32.a(vector3.o)
 .bss           0x00000000        0x0 /home/john/MPLAB-X/XC32_Compiler/bin/bin/../../lib/gcc/pic32mx/4.8.3/../../../../pic32mx/lib/libpic32.a(vector3.o)
 .reginfo       0x00000000       0x18 /home/john/MPLAB-X/XC32_Compiler/bin/bin/../../lib/gcc/pic32mx/4.8.3/../../../../pic32mx/lib/libpic32.a(vector3.o)
 .text          0x00000000        0x0 /home/john/MPLAB-X/XC32_Compiler/bin/bin/../../lib/gcc/pic32mx/4.8.3/../../../../pic32mx/lib/libpic32.a(vector5.o)
 .data          0x00000000        0x0 /home/john/MPLAB-X/XC32_Compiler/bin/bin/../../lib/gcc/pic32mx/4.8.3/../../../../pic32mx/lib/libpic32.a(vector5.o)
 .bss           0x00000000        0x0 /home/john/MPLAB-X/XC32_Compiler/bin/bin/../../lib/gcc/pic32mx/4.8.3/../../../../pic32mx/lib/libpic32.a(vector5.o)
 .reginfo       0x00000000       0x18 /home/john/MPLAB-X/XC32_Compiler/bin/bin/../../lib/gcc/pic32mx/4.8.3/../../../../pic32mx/lib/libpic32.a(vector5.o)
 .text          0x00000000        0x0 /home/john/MPLAB-X/XC32_Compiler/bin/bin/../../lib/gcc/pic32mx/4.8.3/../../../../pic32mx/lib/libpic32.a(vector6.o)
 .data          0x00000000        0x0 /home/john/MPLAB-X/XC32_Compiler/bin/bin/../../lib/gcc/pic32mx/4.8.3/../../../../pic32mx/lib/libpic32.a(vector6.o)
 .bss           0x00000000        0x0 /home/john/MPLAB-X/XC32_Compiler/bin/bin/../../lib/gcc/pic32mx/4.8.3/../../../../pic32mx/lib/libpic32.a(vector6.o)
 .reginfo       0x00000000       0x18 /home/john/MPLAB-X/XC32_Compiler/bin/bin/../../lib/gcc/pic32mx/4.8.3/../../../../pic32mx/lib/libpic32.a(vector6.o)
 .text          0x00000000        0x0 /home/john/MPLAB-X/XC32_Compiler/bin/bin/../../lib/gcc/pic32mx/4.8.3/../../../../pic32mx/lib/libpic32.a(vector7.o)
 .data          0x00000000        0x0 /home/john/MPLAB-X/XC32_Compiler/bin/bin/../../lib/gcc/pic32mx/4.8.3/../../../../pic32mx/lib/libpic32.a(vector7.o)
 .bss           0x00000000        0x0 /home/john/MPLAB-X/XC32_Compiler/bin/bin/../../lib/gcc/pic32mx/4.8.3/../../../../pic32mx/lib/libpic32.a(vector7.o)
 .reginfo       0x00000000       0x18 /home/john/MPLAB-X/XC32_Compiler/bin/bin/../../lib/gcc/pic32mx/4.8.3/../../../../pic32mx/lib/libpic32.a(vector7.o)
 .text          0x00000000        0x0 /home/john/MPLAB-X/XC32_Compiler/bin/bin/../../lib/gcc/pic32mx/4.8.3/../../../../pic32mx/lib/libpic32.a(vector8.o)
 .data          0x00000000        0x0 /home/john/MPLAB-X/XC32_Compiler/bin/bin/../../lib/gcc/pic32mx/4.8.3/../../../../pic32mx/lib/libpic32.a(vector8.o)
 .bss           0x00000000        0x0 /home/john/MPLAB-X/XC32_Compiler/bin/bin/../../lib/gcc/pic32mx/4.8.3/../../../../pic32mx/lib/libpic32.a(vector8.o)
 .reginfo       0x00000000       0x18 /home/john/MPLAB-X/XC32_Compiler/bin/bin/../../lib/gcc/pic32mx/4.8.3/../../../../pic32mx/lib/libpic32.a(vector8.o)
 .text          0x00000000        0x0 /home/john/MPLAB-X/XC32_Compiler/bin/bin/../../lib/gcc/pic32mx/4.8.3/../../../../pic32mx/lib/libpic32.a(vector9.o)
 .data          0x00000000        0x0 /home/john/MPLAB-X/XC32_Compiler/bin/bin/../../lib/gcc/pic32mx/4.8.3/../../../../pic32mx/lib/libpic32.a(vector9.o)
 .bss           0x00000000        0x0 /home/john/MPLAB-X/XC32_Compiler/bin/bin/../../lib/gcc/pic32mx/4.8.3/../../../../pic32mx/lib/libpic32.a(vector9.o)
 .reginfo       0x00000000       0x18 /home/john/MPLAB-X/XC32_Compiler/bin/bin/../../lib/gcc/pic32mx/4.8.3/../../../../pic32mx/lib/libpic32.a(vector9.o)
 .text          0x00000000        0x0 /home/john/MPLAB-X/XC32_Compiler/bin/bin/../../lib/gcc/pic32mx/4.8.3/../../../../pic32mx/lib/libpic32.a(vector10.o)
 .data          0x00000000        0x0 /home/john/MPLAB-X/XC32_Compiler/bin/bin/../../lib/gcc/pic32mx/4.8.3/../../../../pic32mx/lib/libpic32.a(vector10.o)
 .bss           0x00000000        0x0 /home/john/MPLAB-X/XC32_Compiler/bin/bin/../../lib/gcc/pic32mx/4.8.3/../../../../pic32mx/lib/libpic32.a(vector10.o)
 .reginfo       0x00000000       0x18 /home/john/MPLAB-X/XC32_Compiler/bin/bin/../../lib/gcc/pic32mx/4.8.3/../../../../pic32mx/lib/libpic32.a(vector10.o)
 .text          0x00000000        0x0 /home/john/MPLAB-X/XC32_Compiler/bin/bin/../../lib/gcc/pic32mx/4.8.3/../../../../pic32mx/lib/libpic32.a(vector11.o)
 .data          0x00000000        0x0 /home/john/MPLAB-X/XC32_Compiler/bin/bin/../../lib/gcc/pic32mx/4.8.3/../../../../pic32mx/lib/libpic32.a(vector11.o)
 .bss           0x00000000        0x0 /home/john/MPLAB-X/XC32_Compiler/bin/bin/../../lib/gcc/pic32mx/4.8.3/../../../../pic32mx/lib/libpic32.a(vector11.o)
 .reginfo       0x00000000       0x18 /home/john/MPLAB-X/XC32_Compiler/bin/bin/../../lib/gcc/pic32mx/4.8.3/../../../../pic32mx/lib/libpic32.a(vector11.o)
 .text          0x00000000        0x0 /home/john/MPLAB-X/XC32_Compiler/bin/bin/../../lib/gcc/pic32mx/4.8.3/../../../../pic32mx/lib/libpic32.a(vector12.o)
 .data          0x00000000        0x0 /home/john/MPLAB-X/XC32_Compiler/bin/bin/../../lib/gcc/pic32mx/4.8.3/../../../../pic32mx/lib/libpic32.a(vector12.o)
 .bss           0x00000000        0x0 /home/john/MPLAB-X/XC32_Compiler/bin/bin/../../lib/gcc/pic32mx/4.8.3/../../../../pic32mx/lib/libpic32.a(vector12.o)
 .reginfo       0x00000000       0x18 /home/john/MPLAB-X/XC32_Compiler/bin/bin/../../lib/gcc/pic32mx/4.8.3/../../../../pic32mx/lib/libpic32.a(vector12.o)
 .text          0x00000000        0x0 /home/john/MPLAB-X/XC32_Compiler/bin/bin/../../lib/gcc/pic32mx/4.8.3/../../../../pic32mx/lib/libpic32.a(vector13.o)
 .data          0x00000000        0x0 /home/john/MPLAB-X/XC32_Compiler/bin/bin/../../lib/gcc/pic32mx/4.8.3/../../../../pic32mx/lib/libpic32.a(vector13.o)
 .bss           0x00000000        0x0 /home/john/MPLAB-X/XC32_Compiler/bin/bin/../../lib/gcc/pic32mx/4.8.3/../../../../pic32mx/lib/libpic32.a(vector13.o)
 .reginfo       0x00000000       0x18 /home/john/MPLAB-X/XC32_Compiler/bin/bin/../../lib/gcc/pic32mx/4.8.3/../../../../pic32mx/lib/libpic32.a(vector13.o)
 .text          0x00000000        0x0 /home/john/MPLAB-X/XC32_Compiler/bin/bin/../../lib/gcc/pic32mx/4.8.3/../../../../pic32mx/lib/libpic32.a(vector14.o)
 .data          0x00000000        0x0 /home/john/MPLAB-X/XC32_Compiler/bin/bin/../../lib/gcc/pic32mx/4.8.3/../../../../pic32mx/lib/libpic32.a(vector14.o)
 .bss           0x00000000        0x0 /home/john/MPLAB-X/XC32_Compiler/bin/bin/../../lib/gcc/pic32mx/4.8.3/../../../../pic32mx/lib/libpic32.a(vector14.o)
 .reginfo       0x00000000       0x18 /home/john/MPLAB-X/XC32_Compiler/bin/bin/../../lib/gcc/pic32mx/4.8.3/../../../../pic32mx/lib/libpic32.a(vector14.o)
 .text          0x00000000        0x0 /home/john/MPLAB-X/XC32_Compiler/bin/bin/../../lib/gcc/pic32mx/4.8.3/../../../../pic32mx/lib/libpic32.a(vector15.o)
 .data          0x00000000        0x0 /home/john/MPLAB-X/XC32_Compiler/bin/bin/../../lib/gcc/pic32mx/4.8.3/../../../../pic32mx/lib/libpic32.a(vector15.o)
 .bss           0x00000000        0x0 /home/john/MPLAB-X/XC32_Compiler/bin/bin/../../lib/gcc/pic32mx/4.8.3/../../../../pic32mx/lib/libpic32.a(vector15.o)
 .reginfo       0x00000000       0x18 /home/john/MPLAB-X/XC32_Compiler/bin/bin/../../lib/gcc/pic32mx/4.8.3/../../../../pic32mx/lib/libpic32.a(vector15.o)
 .text          0x00000000        0x0 /home/john/MPLAB-X/XC32_Compiler/bin/bin/../../lib/gcc/pic32mx/4.8.3/../../../../pic32mx/lib/libpic32.a(vector16.o)
 .data          0x00000000        0x0 /home/john/MPLAB-X/XC32_Compiler/bin/bin/../../lib/gcc/pic32mx/4.8.3/../../../../pic32mx/lib/libpic32.a(vector16.o)
 .bss           0x00000000        0x0 /home/john/MPLAB-X/XC32_Compiler/bin/bin/../../lib/gcc/pic32mx/4.8.3/../../../../pic32mx/lib/libpic32.a(vector16.o)
 .reginfo       0x00000000       0x18 /home/john/MPLAB-X/XC32_Compiler/bin/bin/../../lib/gcc/pic32mx/4.8.3/../../../../pic32mx/lib/libpic32.a(vector16.o)
 .text          0x00000000        0x0 /home/john/MPLAB-X/XC32_Compiler/bin/bin/../../lib/gcc/pic32mx/4.8.3/../../../../pic32mx/lib/libpic32.a(vector17.o)
 .data          0x00000000        0x0 /home/john/MPLAB-X/XC32_Compiler/bin/bin/../../lib/gcc/pic32mx/4.8.3/../../../../pic32mx/lib/libpic32.a(vector17.o)
 .bss           0x00000000        0x0 /home/john/MPLAB-X/XC32_Compiler/bin/bin/../../lib/gcc/pic32mx/4.8.3/../../../../pic32mx/lib/libpic32.a(vector17.o)
 .reginfo       0x00000000       0x18 /home/john/MPLAB-X/XC32_Compiler/bin/bin/../../lib/gcc/pic32mx/4.8.3/../../../../pic32mx/lib/libpic32.a(vector17.o)
 .text          0x00000000        0x0 /home/john/MPLAB-X/XC32_Compiler/bin/bin/../../lib/gcc/pic32mx/4.8.3/../../../../pic32mx/lib/libpic32.a(vector18.o)
 .data          0x00000000        0x0 /home/john/MPLAB-X/XC32_Compiler/bin/bin/../../lib/gcc/pic32mx/4.8.3/../../../../pic32mx/lib/libpic32.a(vector18.o)
 .bss           0x00000000        0x0 /home/john/MPLAB-X/XC32_Compiler/bin/bin/../../lib/gcc/pic32mx/4.8.3/../../../../pic32mx/lib/libpic32.a(vector18.o)
 .reginfo       0x00000000       0x18 /home/john/MPLAB-X/XC32_Compiler/bin/bin/../../lib/gcc/pic32mx/4.8.3/../../../../pic32mx/lib/libpic32.a(vector18.o)
 .text          0x00000000        0x0 /home/john/MPLAB-X/XC32_Compiler/bin/bin/../../lib/gcc/pic32mx/4.8.3/../../../../pic32mx/lib/libpic32.a(vector19.o)
 .data          0x00000000        0x0 /home/john/MPLAB-X/XC32_Compiler/bin/bin/../../lib/gcc/pic32mx/4.8.3/../../../../pic32mx/lib/libpic32.a(vector19.o)
 .bss           0x00000000        0x0 /home/john/MPLAB-X/XC32_Compiler/bin/bin/../../lib/gcc/pic32mx/4.8.3/../../../../pic32mx/lib/libpic32.a(vector19.o)
 .reginfo       0x00000000       0x18 /home/john/MPLAB-X/XC32_Compiler/bin/bin/../../lib/gcc/pic32mx/4.8.3/../../../../pic32mx/lib/libpic32.a(vector19.o)
 .text          0x00000000        0x0 /home/john/MPLAB-X/XC32_Compiler/bin/bin/../../lib/gcc/pic32mx/4.8.3/../../../../pic32mx/lib/libpic32.a(vector20.o)
 .data          0x00000000        0x0 /home/john/MPLAB-X/XC32_Compiler/bin/bin/../../lib/gcc/pic32mx/4.8.3/../../../../pic32mx/lib/libpic32.a(vector20.o)
 .bss           0x00000000        0x0 /home/john/MPLAB-X/XC32_Compiler/bin/bin/../../lib/gcc/pic32mx/4.8.3/../../../../pic32mx/lib/libpic32.a(vector20.o)
 .reginfo       0x00000000       0x18 /home/john/MPLAB-X/XC32_Compiler/bin/bin/../../lib/gcc/pic32mx/4.8.3/../../../../pic32mx/lib/libpic32.a(vector20.o)
 .text          0x00000000        0x0 /home/john/MPLAB-X/XC32_Compiler/bin/bin/../../lib/gcc/pic32mx/4.8.3/../../../../pic32mx/lib/libpic32.a(vector21.o)
 .data          0x00000000        0x0 /home/john/MPLAB-X/XC32_Compiler/bin/bin/../../lib/gcc/pic32mx/4.8.3/../../../../pic32mx/lib/libpic32.a(vector21.o)
 .bss           0x00000000        0x0 /home/john/MPLAB-X/XC32_Compiler/bin/bin/../../lib/gcc/pic32mx/4.8.3/../../../../pic32mx/lib/libpic32.a(vector21.o)
 .reginfo       0x00000000       0x18 /home/john/MPLAB-X/XC32_Compiler/bin/bin/../../lib/gcc/pic32mx/4.8.3/../../../../pic32mx/lib/libpic32.a(vector21.o)
 .text          0x00000000        0x0 /home/john/MPLAB-X/XC32_Compiler/bin/bin/../../lib/gcc/pic32mx/4.8.3/../../../../pic32mx/lib/libpic32.a(vector22.o)
 .data          0x00000000        0x0 /home/john/MPLAB-X/XC32_Compiler/bin/bin/../../lib/gcc/pic32mx/4.8.3/../../../../pic32mx/lib/libpic32.a(vector22.o)
 .bss           0x00000000        0x0 /home/john/MPLAB-X/XC32_Compiler/bin/bin/../../lib/gcc/pic32mx/4.8.3/../../../../pic32mx/lib/libpic32.a(vector22.o)
 .reginfo       0x00000000       0x18 /home/john/MPLAB-X/XC32_Compiler/bin/bin/../../lib/gcc/pic32mx/4.8.3/../../../../pic32mx/lib/libpic32.a(vector22.o)
 .text          0x00000000        0x0 /home/john/MPLAB-X/XC32_Compiler/bin/bin/../../lib/gcc/pic32mx/4.8.3/../../../../pic32mx/lib/libpic32.a(vector23.o)
 .data          0x00000000        0x0 /home/john/MPLAB-X/XC32_Compiler/bin/bin/../../lib/gcc/pic32mx/4.8.3/../../../../pic32mx/lib/libpic32.a(vector23.o)
 .bss           0x00000000        0x0 /home/john/MPLAB-X/XC32_Compiler/bin/bin/../../lib/gcc/pic32mx/4.8.3/../../../../pic32mx/lib/libpic32.a(vector23.o)
 .reginfo       0x00000000       0x18 /home/john/MPLAB-X/XC32_Compiler/bin/bin/../../lib/gcc/pic32mx/4.8.3/../../../../pic32mx/lib/libpic32.a(vector23.o)
 .text          0x00000000        0x0 /home/john/MPLAB-X/XC32_Compiler/bin/bin/../../lib/gcc/pic32mx/4.8.3/../../../../pic32mx/lib/libpic32.a(vector25.o)
 .data          0x00000000        0x0 /home/john/MPLAB-X/XC32_Compiler/bin/bin/../../lib/gcc/pic32mx/4.8.3/../../../../pic32mx/lib/libpic32.a(vector25.o)
 .bss           0x00000000        0x0 /home/john/MPLAB-X/XC32_Compiler/bin/bin/../../lib/gcc/pic32mx/4.8.3/../../../../pic32mx/lib/libpic32.a(vector25.o)
 .reginfo       0x00000000       0x18 /home/john/MPLAB-X/XC32_Compiler/bin/bin/../../lib/gcc/pic32mx/4.8.3/../../../../pic32mx/lib/libpic32.a(vector25.o)
 .text          0x00000000        0x0 /home/john/MPLAB-X/XC32_Compiler/bin/bin/../../lib/gcc/pic32mx/4.8.3/../../../../pic32mx/lib/libpic32.a(vector26.o)
 .data          0x00000000        0x0 /home/john/MPLAB-X/XC32_Compiler/bin/bin/../../lib/gcc/pic32mx/4.8.3/../../../../pic32mx/lib/libpic32.a(vector26.o)
 .bss           0x00000000        0x0 /home/john/MPLAB-X/XC32_Compiler/bin/bin/../../lib/gcc/pic32mx/4.8.3/../../../../pic32mx/lib/libpic32.a(vector26.o)
 .reginfo       0x00000000       0x18 /home/john/MPLAB-X/XC32_Compiler/bin/bin/../../lib/gcc/pic32mx/4.8.3/../../../../pic32mx/lib/libpic32.a(vector26.o)
 .text          0x00000000        0x0 /home/john/MPLAB-X/XC32_Compiler/bin/bin/../../lib/gcc/pic32mx/4.8.3/../../../../pic32mx/lib/libpic32.a(vector27.o)
 .data          0x00000000        0x0 /home/john/MPLAB-X/XC32_Compiler/bin/bin/../../lib/gcc/pic32mx/4.8.3/../../../../pic32mx/lib/libpic32.a(vector27.o)
 .bss           0x00000000        0x0 /home/john/MPLAB-X/XC32_Compiler/bin/bin/../../lib/gcc/pic32mx/4.8.3/../../../../pic32mx/lib/libpic32.a(vector27.o)
 .reginfo       0x00000000       0x18 /home/john/MPLAB-X/XC32_Compiler/bin/bin/../../lib/gcc/pic32mx/4.8.3/../../../../pic32mx/lib/libpic32.a(vector27.o)
 .text          0x00000000        0x0 /home/john/MPLAB-X/XC32_Compiler/bin/bin/../../lib/gcc/pic32mx/4.8.3/../../../../pic32mx/lib/libpic32.a(vector28.o)
 .data          0x00000000        0x0 /home/john/MPLAB-X/XC32_Compiler/bin/bin/../../lib/gcc/pic32mx/4.8.3/../../../../pic32mx/lib/libpic32.a(vector28.o)
 .bss           0x00000000        0x0 /home/john/MPLAB-X/XC32_Compiler/bin/bin/../../lib/gcc/pic32mx/4.8.3/../../../../pic32mx/lib/libpic32.a(vector28.o)
 .reginfo       0x00000000       0x18 /home/john/MPLAB-X/XC32_Compiler/bin/bin/../../lib/gcc/pic32mx/4.8.3/../../../../pic32mx/lib/libpic32.a(vector28.o)
 .text          0x00000000        0x0 /home/john/MPLAB-X/XC32_Compiler/bin/bin/../../lib/gcc/pic32mx/4.8.3/../../../../pic32mx/lib/libpic32.a(vector29.o)
 .data          0x00000000        0x0 /home/john/MPLAB-X/XC32_Compiler/bin/bin/../../lib/gcc/pic32mx/4.8.3/../../../../pic32mx/lib/libpic32.a(vector29.o)
 .bss           0x00000000        0x0 /home/john/MPLAB-X/XC32_Compiler/bin/bin/../../lib/gcc/pic32mx/4.8.3/../../../../pic32mx/lib/libpic32.a(vector29.o)
 .reginfo       0x00000000       0x18 /home/john/MPLAB-X/XC32_Compiler/bin/bin/../../lib/gcc/pic32mx/4.8.3/../../../../pic32mx/lib/libpic32.a(vector29.o)
 .text          0x00000000        0x0 /home/john/MPLAB-X/XC32_Compiler/bin/bin/../../lib/gcc/pic32mx/4.8.3/../../../../pic32mx/lib/libpic32.a(vector30.o)
 .data          0x00000000        0x0 /home/john/MPLAB-X/XC32_Compiler/bin/bin/../../lib/gcc/pic32mx/4.8.3/../../../../pic32mx/lib/libpic32.a(vector30.o)
 .bss           0x00000000        0x0 /home/john/MPLAB-X/XC32_Compiler/bin/bin/../../lib/gcc/pic32mx/4.8.3/../../../../pic32mx/lib/libpic32.a(vector30.o)
 .reginfo       0x00000000       0x18 /home/john/MPLAB-X/XC32_Compiler/bin/bin/../../lib/gcc/pic32mx/4.8.3/../../../../pic32mx/lib/libpic32.a(vector30.o)
 .text          0x00000000        0x0 /home/john/MPLAB-X/XC32_Compiler/bin/bin/../../lib/gcc/pic32mx/4.8.3/../../../../pic32mx/lib/libpic32.a(vector31.o)
 .data          0x00000000        0x0 /home/john/MPLAB-X/XC32_Compiler/bin/bin/../../lib/gcc/pic32mx/4.8.3/../../../../pic32mx/lib/libpic32.a(vector31.o)
 .bss           0x00000000        0x0 /home/john/MPLAB-X/XC32_Compiler/bin/bin/../../lib/gcc/pic32mx/4.8.3/../../../../pic32mx/lib/libpic32.a(vector31.o)
 .reginfo       0x00000000       0x18 /home/john/MPLAB-X/XC32_Compiler/bin/bin/../../lib/gcc/pic32mx/4.8.3/../../../../pic32mx/lib/libpic32.a(vector31.o)
 .text          0x00000000        0x0 /home/john/MPLAB-X/XC32_Compiler/bin/bin/../../lib/gcc/pic32mx/4.8.3/../../../../pic32mx/lib/libpic32.a(vector32.o)
 .data          0x00000000        0x0 /home/john/MPLAB-X/XC32_Compiler/bin/bin/../../lib/gcc/pic32mx/4.8.3/../../../../pic32mx/lib/libpic32.a(vector32.o)
 .bss           0x00000000        0x0 /home/john/MPLAB-X/XC32_Compiler/bin/bin/../../lib/gcc/pic32mx/4.8.3/../../../../pic32mx/lib/libpic32.a(vector32.o)
 .reginfo       0x00000000       0x18 /home/john/MPLAB-X/XC32_Compiler/bin/bin/../../lib/gcc/pic32mx/4.8.3/../../../../pic32mx/lib/libpic32.a(vector32.o)
 .text          0x00000000        0x0 /home/john/MPLAB-X/XC32_Compiler/bin/bin/../../lib/gcc/pic32mx/4.8.3/../../../../pic32mx/lib/libpic32.a(vector33.o)
 .data          0x00000000        0x0 /home/john/MPLAB-X/XC32_Compiler/bin/bin/../../lib/gcc/pic32mx/4.8.3/../../../../pic32mx/lib/libpic32.a(vector33.o)
 .bss           0x00000000        0x0 /home/john/MPLAB-X/XC32_Compiler/bin/bin/../../lib/gcc/pic32mx/4.8.3/../../../../pic32mx/lib/libpic32.a(vector33.o)
 .reginfo       0x00000000       0x18 /home/john/MPLAB-X/XC32_Compiler/bin/bin/../../lib/gcc/pic32mx/4.8.3/../../../../pic32mx/lib/libpic32.a(vector33.o)
 .text          0x00000000        0x0 /home/john/MPLAB-X/XC32_Compiler/bin/bin/../../lib/gcc/pic32mx/4.8.3/../../../../pic32mx/lib/libpic32.a(vector34.o)
 .data          0x00000000        0x0 /home/john/MPLAB-X/XC32_Compiler/bin/bin/../../lib/gcc/pic32mx/4.8.3/../../../../pic32mx/lib/libpic32.a(vector34.o)
 .bss           0x00000000        0x0 /home/john/MPLAB-X/XC32_Compiler/bin/bin/../../lib/gcc/pic32mx/4.8.3/../../../../pic32mx/lib/libpic32.a(vector34.o)
 .reginfo       0x00000000       0x18 /home/john/MPLAB-X/XC32_Compiler/bin/bin/../../lib/gcc/pic32mx/4.8.3/../../../../pic32mx/lib/libpic32.a(vector34.o)
 .text          0x00000000        0x0 /home/john/MPLAB-X/XC32_Compiler/bin/bin/../../lib/gcc/pic32mx/4.8.3/../../../../pic32mx/lib/libpic32.a(vector35.o)
 .data          0x00000000        0x0 /home/john/MPLAB-X/XC32_Compiler/bin/bin/../../lib/gcc/pic32mx/4.8.3/../../../../pic32mx/lib/libpic32.a(vector35.o)
 .bss           0x00000000        0x0 /home/john/MPLAB-X/XC32_Compiler/bin/bin/../../lib/gcc/pic32mx/4.8.3/../../../../pic32mx/lib/libpic32.a(vector35.o)
 .reginfo       0x00000000       0x18 /home/john/MPLAB-X/XC32_Compiler/bin/bin/../../lib/gcc/pic32mx/4.8.3/../../../../pic32mx/lib/libpic32.a(vector35.o)
 .text          0x00000000        0x0 /home/john/MPLAB-X/XC32_Compiler/bin/bin/../../lib/gcc/pic32mx/4.8.3/../../../../pic32mx/lib/libpic32.a(vector36.o)
 .data          0x00000000        0x0 /home/john/MPLAB-X/XC32_Compiler/bin/bin/../../lib/gcc/pic32mx/4.8.3/../../../../pic32mx/lib/libpic32.a(vector36.o)
 .bss           0x00000000        0x0 /home/john/MPLAB-X/XC32_Compiler/bin/bin/../../lib/gcc/pic32mx/4.8.3/../../../../pic32mx/lib/libpic32.a(vector36.o)
 .reginfo       0x00000000       0x18 /home/john/MPLAB-X/XC32_Compiler/bin/bin/../../lib/gcc/pic32mx/4.8.3/../../../../pic32mx/lib/libpic32.a(vector36.o)
 .text          0x00000000        0x0 /home/john/MPLAB-X/XC32_Compiler/bin/bin/../../lib/gcc/pic32mx/4.8.3/../../../../pic32mx/lib/libpic32.a(vector37.o)
 .data          0x00000000        0x0 /home/john/MPLAB-X/XC32_Compiler/bin/bin/../../lib/gcc/pic32mx/4.8.3/../../../../pic32mx/lib/libpic32.a(vector37.o)
 .bss           0x00000000        0x0 /home/john/MPLAB-X/XC32_Compiler/bin/bin/../../lib/gcc/pic32mx/4.8.3/../../../../pic32mx/lib/libpic32.a(vector37.o)
 .reginfo       0x00000000       0x18 /home/john/MPLAB-X/XC32_Compiler/bin/bin/../../lib/gcc/pic32mx/4.8.3/../../../../pic32mx/lib/libpic32.a(vector37.o)
 .text          0x00000000        0x0 /home/john/MPLAB-X/XC32_Compiler/bin/bin/../../lib/gcc/pic32mx/4.8.3/../../../../pic32mx/lib/libpic32.a(vector38.o)
 .data          0x00000000        0x0 /home/john/MPLAB-X/XC32_Compiler/bin/bin/../../lib/gcc/pic32mx/4.8.3/../../../../pic32mx/lib/libpic32.a(vector38.o)
 .bss           0x00000000        0x0 /home/john/MPLAB-X/XC32_Compiler/bin/bin/../../lib/gcc/pic32mx/4.8.3/../../../../pic32mx/lib/libpic32.a(vector38.o)
 .reginfo       0x00000000       0x18 /home/john/MPLAB-X/XC32_Compiler/bin/bin/../../lib/gcc/pic32mx/4.8.3/../../../../pic32mx/lib/libpic32.a(vector38.o)
 .text          0x00000000        0x0 /home/john/MPLAB-X/XC32_Compiler/bin/bin/../../lib/gcc/pic32mx/4.8.3/../../../../pic32mx/lib/libpic32.a(vector39.o)
 .data          0x00000000        0x0 /home/john/MPLAB-X/XC32_Compiler/bin/bin/../../lib/gcc/pic32mx/4.8.3/../../../../pic32mx/lib/libpic32.a(vector39.o)
 .bss           0x00000000        0x0 /home/john/MPLAB-X/XC32_Compiler/bin/bin/../../lib/gcc/pic32mx/4.8.3/../../../../pic32mx/lib/libpic32.a(vector39.o)
 .reginfo       0x00000000       0x18 /home/john/MPLAB-X/XC32_Compiler/bin/bin/../../lib/gcc/pic32mx/4.8.3/../../../../pic32mx/lib/libpic32.a(vector39.o)
 .text          0x00000000        0x0 /home/john/MPLAB-X/XC32_Compiler/bin/bin/../../lib/gcc/pic32mx/4.8.3/../../../../pic32mx/lib/libpic32.a(vector40.o)
 .data          0x00000000        0x0 /home/john/MPLAB-X/XC32_Compiler/bin/bin/../../lib/gcc/pic32mx/4.8.3/../../../../pic32mx/lib/libpic32.a(vector40.o)
 .bss           0x00000000        0x0 /home/john/MPLAB-X/XC32_Compiler/bin/bin/../../lib/gcc/pic32mx/4.8.3/../../../../pic32mx/lib/libpic32.a(vector40.o)
 .reginfo       0x00000000       0x18 /home/john/MPLAB-X/XC32_Compiler/bin/bin/../../lib/gcc/pic32mx/4.8.3/../../../../pic32mx/lib/libpic32.a(vector40.o)
 .text          0x00000000        0x0 /home/john/MPLAB-X/XC32_Compiler/bin/bin/../../lib/gcc/pic32mx/4.8.3/../../../../pic32mx/lib/libpic32.a(vector41.o)
 .data          0x00000000        0x0 /home/john/MPLAB-X/XC32_Compiler/bin/bin/../../lib/gcc/pic32mx/4.8.3/../../../../pic32mx/lib/libpic32.a(vector41.o)
 .bss           0x00000000        0x0 /home/john/MPLAB-X/XC32_Compiler/bin/bin/../../lib/gcc/pic32mx/4.8.3/../../../../pic32mx/lib/libpic32.a(vector41.o)
 .reginfo       0x00000000       0x18 /home/john/MPLAB-X/XC32_Compiler/bin/bin/../../lib/gcc/pic32mx/4.8.3/../../../../pic32mx/lib/libpic32.a(vector41.o)
 .text          0x00000000        0x0 /home/john/MPLAB-X/XC32_Compiler/bin/bin/../../lib/gcc/pic32mx/4.8.3/../../../../pic32mx/lib/libpic32.a(vector42.o)
 .data          0x00000000        0x0 /home/john/MPLAB-X/XC32_Compiler/bin/bin/../../lib/gcc/pic32mx/4.8.3/../../../../pic32mx/lib/libpic32.a(vector42.o)
 .bss           0x00000000        0x0 /home/john/MPLAB-X/XC32_Compiler/bin/bin/../../lib/gcc/pic32mx/4.8.3/../../../../pic32mx/lib/libpic32.a(vector42.o)
 .reginfo       0x00000000       0x18 /home/john/MPLAB-X/XC32_Compiler/bin/bin/../../lib/gcc/pic32mx/4.8.3/../../../../pic32mx/lib/libpic32.a(vector42.o)
 .text          0x00000000        0x0 /home/john/MPLAB-X/XC32_Compiler/bin/bin/../../lib/gcc/pic32mx/4.8.3/../../../../pic32mx/lib/libpic32.a(vector43.o)
 .data          0x00000000        0x0 /home/john/MPLAB-X/XC32_Compiler/bin/bin/../../lib/gcc/pic32mx/4.8.3/../../../../pic32mx/lib/libpic32.a(vector43.o)
 .bss           0x00000000        0x0 /home/john/MPLAB-X/XC32_Compiler/bin/bin/../../lib/gcc/pic32mx/4.8.3/../../../../pic32mx/lib/libpic32.a(vector43.o)
 .reginfo       0x00000000       0x18 /home/john/MPLAB-X/XC32_Compiler/bin/bin/../../lib/gcc/pic32mx/4.8.3/../../../../pic32mx/lib/libpic32.a(vector43.o)
 .text          0x00000000        0x0 /home/john/MPLAB-X/XC32_Compiler/bin/bin/../../lib/gcc/pic32mx/4.8.3/../../../../pic32mx/lib/libpic32.a(vector44.o)
 .data          0x00000000        0x0 /home/john/MPLAB-X/XC32_Compiler/bin/bin/../../lib/gcc/pic32mx/4.8.3/../../../../pic32mx/lib/libpic32.a(vector44.o)
 .bss           0x00000000        0x0 /home/john/MPLAB-X/XC32_Compiler/bin/bin/../../lib/gcc/pic32mx/4.8.3/../../../../pic32mx/lib/libpic32.a(vector44.o)
 .reginfo       0x00000000       0x18 /home/john/MPLAB-X/XC32_Compiler/bin/bin/../../lib/gcc/pic32mx/4.8.3/../../../../pic32mx/lib/libpic32.a(vector44.o)
 .text          0x00000000        0x0 /home/john/MPLAB-X/XC32_Compiler/bin/bin/../../lib/gcc/pic32mx/4.8.3/../../../../pic32mx/lib/libpic32.a(vector45.o)
 .data          0x00000000        0x0 /home/john/MPLAB-X/XC32_Compiler/bin/bin/../../lib/gcc/pic32mx/4.8.3/../../../../pic32mx/lib/libpic32.a(vector45.o)
 .bss           0x00000000        0x0 /home/john/MPLAB-X/XC32_Compiler/bin/bin/../../lib/gcc/pic32mx/4.8.3/../../../../pic32mx/lib/libpic32.a(vector45.o)
 .reginfo       0x00000000       0x18 /home/john/MPLAB-X/XC32_Compiler/bin/bin/../../lib/gcc/pic32mx/4.8.3/../../../../pic32mx/lib/libpic32.a(vector45.o)
 .text          0x00000000        0x0 /home/john/MPLAB-X/XC32_Compiler/bin/bin/../../lib/gcc/pic32mx/4.8.3/../../../../pic32mx/lib/libpic32.a(vector46.o)
 .data          0x00000000        0x0 /home/john/MPLAB-X/XC32_Compiler/bin/bin/../../lib/gcc/pic32mx/4.8.3/../../../../pic32mx/lib/libpic32.a(vector46.o)
 .bss           0x00000000        0x0 /home/john/MPLAB-X/XC32_Compiler/bin/bin/../../lib/gcc/pic32mx/4.8.3/../../../../pic32mx/lib/libpic32.a(vector46.o)
 .reginfo       0x00000000       0x18 /home/john/MPLAB-X/XC32_Compiler/bin/bin/../../lib/gcc/pic32mx/4.8.3/../../../../pic32mx/lib/libpic32.a(vector46.o)
 .text          0x00000000        0x0 /home/john/MPLAB-X/XC32_Compiler/bin/bin/../../lib/gcc/pic32mx/4.8.3/../../../../pic32mx/lib/libpic32.a(vector47.o)
 .data          0x00000000        0x0 /home/john/MPLAB-X/XC32_Compiler/bin/bin/../../lib/gcc/pic32mx/4.8.3/../../../../pic32mx/lib/libpic32.a(vector47.o)
 .bss           0x00000000        0x0 /home/john/MPLAB-X/XC32_Compiler/bin/bin/../../lib/gcc/pic32mx/4.8.3/../../../../pic32mx/lib/libpic32.a(vector47.o)
 .reginfo       0x00000000       0x18 /home/john/MPLAB-X/XC32_Compiler/bin/bin/../../lib/gcc/pic32mx/4.8.3/../../../../pic32mx/lib/libpic32.a(vector47.o)
 .text          0x00000000        0x0 /home/john/MPLAB-X/XC32_Compiler/bin/bin/../../lib/gcc/pic32mx/4.8.3/../../../../pic32mx/lib/libpic32.a(vector48.o)
 .data          0x00000000        0x0 /home/john/MPLAB-X/XC32_Compiler/bin/bin/../../lib/gcc/pic32mx/4.8.3/../../../../pic32mx/lib/libpic32.a(vector48.o)
 .bss           0x00000000        0x0 /home/john/MPLAB-X/XC32_Compiler/bin/bin/../../lib/gcc/pic32mx/4.8.3/../../../../pic32mx/lib/libpic32.a(vector48.o)
 .reginfo       0x00000000       0x18 /home/john/MPLAB-X/XC32_Compiler/bin/bin/../../lib/gcc/pic32mx/4.8.3/../../../../pic32mx/lib/libpic32.a(vector48.o)
 .text          0x00000000        0x0 /home/john/MPLAB-X/XC32_Compiler/bin/bin/../../lib/gcc/pic32mx/4.8.3/../../../../pic32mx/lib/libpic32.a(vector49.o)
 .data          0x00000000        0x0 /home/john/MPLAB-X/XC32_Compiler/bin/bin/../../lib/gcc/pic32mx/4.8.3/../../../../pic32mx/lib/libpic32.a(vector49.o)
 .bss           0x00000000        0x0 /home/john/MPLAB-X/XC32_Compiler/bin/bin/../../lib/gcc/pic32mx/4.8.3/../../../../pic32mx/lib/libpic32.a(vector49.o)
 .reginfo       0x00000000       0x18 /home/john/MPLAB-X/XC32_Compiler/bin/bin/../../lib/gcc/pic32mx/4.8.3/../../../../pic32mx/lib/libpic32.a(vector49.o)
 .text          0x00000000        0x0 /home/john/MPLAB-X/XC32_Compiler/bin/bin/../../lib/gcc/pic32mx/4.8.3/../../../../pic32mx/lib/libpic32.a(vector50.o)
 .data          0x00000000        0x0 /home/john/MPLAB-X/XC32_Compiler/bin/bin/../../lib/gcc/pic32mx/4.8.3/../../../../pic32mx/lib/libpic32.a(vector50.o)
 .bss           0x00000000        0x0 /home/john/MPLAB-X/XC32_Compiler/bin/bin/../../lib/gcc/pic32mx/4.8.3/../../../../pic32mx/lib/libpic32.a(vector50.o)
 .reginfo       0x00000000       0x18 /home/john/MPLAB-X/XC32_Compiler/bin/bin/../../lib/gcc/pic32mx/4.8.3/../../../../pic32mx/lib/libpic32.a(vector50.o)
 .text          0x00000000        0x0 /home/john/MPLAB-X/XC32_Compiler/bin/bin/../../lib/gcc/pic32mx/4.8.3/../../../../pic32mx/lib/libpic32.a(vector51.o)
 .data          0x00000000        0x0 /home/john/MPLAB-X/XC32_Compiler/bin/bin/../../lib/gcc/pic32mx/4.8.3/../../../../pic32mx/lib/libpic32.a(vector51.o)
 .bss           0x00000000        0x0 /home/john/MPLAB-X/XC32_Compiler/bin/bin/../../lib/gcc/pic32mx/4.8.3/../../../../pic32mx/lib/libpic32.a(vector51.o)
 .reginfo       0x00000000       0x18 /home/john/MPLAB-X/XC32_Compiler/bin/bin/../../lib/gcc/pic32mx/4.8.3/../../../../pic32mx/lib/libpic32.a(vector51.o)
 .text          0x00000000        0x0 /home/john/MPLAB-X/XC32_Compiler/bin/bin/../../lib/gcc/pic32mx/4.8.3/../../../../pic32mx/lib/libpic32.a(defaultinterrupt.o)
 .data          0x00000000        0x0 /home/john/MPLAB-X/XC32_Compiler/bin/bin/../../lib/gcc/pic32mx/4.8.3/../../../../pic32mx/lib/libpic32.a(defaultinterrupt.o)
 .bss           0x00000000        0x0 /home/john/MPLAB-X/XC32_Compiler/bin/bin/../../lib/gcc/pic32mx/4.8.3/../../../../pic32mx/lib/libpic32.a(defaultinterrupt.o)
 .reginfo       0x00000000       0x18 /home/john/MPLAB-X/XC32_Compiler/bin/bin/../../lib/gcc/pic32mx/4.8.3/../../../../pic32mx/lib/libpic32.a(defaultinterrupt.o)
 .text          0x00000000        0x0 /home/john/MPLAB-X/XC32_Compiler/bin/bin/../../lib/gcc/pic32mx/4.8.3/../../../../pic32mx/lib/libdebug.a(appio.o)
 .bss           0x00000000        0x0 /home/john/MPLAB-X/XC32_Compiler/bin/bin/../../lib/gcc/pic32mx/4.8.3/../../../../pic32mx/lib/libdebug.a(appio.o)
 .reginfo       0x00000000       0x18 /home/john/MPLAB-X/XC32_Compiler/bin/bin/../../lib/gcc/pic32mx/4.8.3/../../../../pic32mx/lib/libdebug.a(appio.o)
 .text          0x00000000        0x0 /home/john/MPLAB-X/XC32_Compiler/bin/bin/../../lib/gcc/pic32mx/4.8.3/../../../../pic32mx/lib/libpic32.a(xc32_uart.o)
 .data          0x00000000        0x0 /home/john/MPLAB-X/XC32_Compiler/bin/bin/../../lib/gcc/pic32mx/4.8.3/../../../../pic32mx/lib/libpic32.a(xc32_uart.o)
 .bss           0x00000000        0x0 /home/john/MPLAB-X/XC32_Compiler/bin/bin/../../lib/gcc/pic32mx/4.8.3/../../../../pic32mx/lib/libpic32.a(xc32_uart.o)
 .reginfo       0x00000000       0x18 /home/john/MPLAB-X/XC32_Compiler/bin/bin/../../lib/gcc/pic32mx/4.8.3/../../../../pic32mx/lib/libpic32.a(xc32_uart.o)
 .text          0x00000000        0x0 /home/john/MPLAB-X/XC32_Compiler/bin/bin/../../lib/gcc/pic32mx/4.8.3/../../../../pic32mx/lib/libc.a(_iob.o)
 .reginfo       0x00000000       0x18 /home/john/MPLAB-X/XC32_Compiler/bin/bin/../../lib/gcc/pic32mx/4.8.3/../../../../pic32mx/lib/libc.a(_iob.o)
 .text          0x00000000        0x0 /home/john/MPLAB-X/XC32_Compiler/bin/bin/../../lib/gcc/pic32mx/4.8.3/../../../../pic32mx/lib/libc.a(setbuf.o)
 .data          0x00000000        0x0 /home/john/MPLAB-X/XC32_Compiler/bin/bin/../../lib/gcc/pic32mx/4.8.3/../../../../pic32mx/lib/libc.a(setbuf.o)
 .bss           0x00000000        0x0 /home/john/MPLAB-X/XC32_Compiler/bin/bin/../../lib/gcc/pic32mx/4.8.3/../../../../pic32mx/lib/libc.a(setbuf.o)
 .reginfo       0x00000000       0x18 /home/john/MPLAB-X/XC32_Compiler/bin/bin/../../lib/gcc/pic32mx/4.8.3/../../../../pic32mx/lib/libc.a(setbuf.o)
 .text.setbuf   0x00000000       0x3c /home/john/MPLAB-X/XC32_Compiler/bin/bin/../../lib/gcc/pic32mx/4.8.3/../../../../pic32mx/lib/libc.a(setbuf.o)
 .text          0x00000000        0x0 /home/john/MPLAB-X/XC32_Compiler/bin/bin/../../lib/gcc/pic32mx/4.8.3/../../../../pic32mx/lib/libc.a(printf_s.eo)
 .data          0x00000000        0x0 /home/john/MPLAB-X/XC32_Compiler/bin/bin/../../lib/gcc/pic32mx/4.8.3/../../../../pic32mx/lib/libc.a(printf_s.eo)
 .bss           0x00000000        0x0 /home/john/MPLAB-X/XC32_Compiler/bin/bin/../../lib/gcc/pic32mx/4.8.3/../../../../pic32mx/lib/libc.a(printf_s.eo)
 .reginfo       0x00000000       0x18 /home/john/MPLAB-X/XC32_Compiler/bin/bin/../../lib/gcc/pic32mx/4.8.3/../../../../pic32mx/lib/libc.a(printf_s.eo)
 .text          0x00000000        0x0 /home/john/MPLAB-X/XC32_Compiler/bin/bin/../../lib/gcc/pic32mx/4.8.3/../../../../pic32mx/lib/libc.a(scanf_s.eo)
 .data          0x00000000        0x0 /home/john/MPLAB-X/XC32_Compiler/bin/bin/../../lib/gcc/pic32mx/4.8.3/../../../../pic32mx/lib/libc.a(scanf_s.eo)
 .bss           0x00000000        0x0 /home/john/MPLAB-X/XC32_Compiler/bin/bin/../../lib/gcc/pic32mx/4.8.3/../../../../pic32mx/lib/libc.a(scanf_s.eo)
 .reginfo       0x00000000       0x18 /home/john/MPLAB-X/XC32_Compiler/bin/bin/../../lib/gcc/pic32mx/4.8.3/../../../../pic32mx/lib/libc.a(scanf_s.eo)
 .text          0x00000000        0x0 /home/john/MPLAB-X/XC32_Compiler/bin/bin/../../lib/gcc/pic32mx/4.8.3/../../../../pic32mx/lib/libc.a(vsnprintf.o)
 .data          0x00000000        0x0 /home/john/MPLAB-X/XC32_Compiler/bin/bin/../../lib/gcc/pic32mx/4.8.3/../../../../pic32mx/lib/libc.a(vsnprintf.o)
 .bss           0x00000000        0x0 /home/john/MPLAB-X/XC32_Compiler/bin/bin/../../lib/gcc/pic32mx/4.8.3/../../../../pic32mx/lib/libc.a(vsnprintf.o)
 .reginfo       0x00000000       0x18 /home/john/MPLAB-X/XC32_Compiler/bin/bin/../../lib/gcc/pic32mx/4.8.3/../../../../pic32mx/lib/libc.a(vsnprintf.o)
 .text          0x00000000        0x0 /home/john/MPLAB-X/XC32_Compiler/bin/bin/../../lib/gcc/pic32mx/4.8.3/../../../../pic32mx/lib/libc.a(buf.o)
 .data          0x00000000        0x0 /home/john/MPLAB-X/XC32_Compiler/bin/bin/../../lib/gcc/pic32mx/4.8.3/../../../../pic32mx/lib/libc.a(buf.o)
 .reginfo       0x00000000       0x18 /home/john/MPLAB-X/XC32_Compiler/bin/bin/../../lib/gcc/pic32mx/4.8.3/../../../../pic32mx/lib/libc.a(buf.o)
 .text          0x00000000        0x0 /home/john/MPLAB-X/XC32_Compiler/bin/bin/../../lib/gcc/pic32mx/4.8.3/../../../../pic32mx/lib/libc.a(errno.o)
 .data          0x00000000        0x0 /home/john/MPLAB-X/XC32_Compiler/bin/bin/../../lib/gcc/pic32mx/4.8.3/../../../../pic32mx/lib/libc.a(errno.o)
 .bss           0x00000000        0x0 /home/john/MPLAB-X/XC32_Compiler/bin/bin/../../lib/gcc/pic32mx/4.8.3/../../../../pic32mx/lib/libc.a(errno.o)
 .reginfo       0x00000000       0x18 /home/john/MPLAB-X/XC32_Compiler/bin/bin/../../lib/gcc/pic32mx/4.8.3/../../../../pic32mx/lib/libc.a(errno.o)
 .text          0x00000000        0x0 /home/john/MPLAB-X/XC32_Compiler/bin/bin/../../lib/gcc/pic32mx/4.8.3/../../../../pic32mx/lib/libc.a(doprnt_s.eo)
 .data          0x00000000        0x0 /home/john/MPLAB-X/XC32_Compiler/bin/bin/../../lib/gcc/pic32mx/4.8.3/../../../../pic32mx/lib/libc.a(doprnt_s.eo)
 .bss           0x00000000        0x0 /home/john/MPLAB-X/XC32_Compiler/bin/bin/../../lib/gcc/pic32mx/4.8.3/../../../../pic32mx/lib/libc.a(doprnt_s.eo)
 .reginfo       0x00000000       0x18 /home/john/MPLAB-X/XC32_Compiler/bin/bin/../../lib/gcc/pic32mx/4.8.3/../../../../pic32mx/lib/libc.a(doprnt_s.eo)
 .text          0x00000000        0x0 /home/john/MPLAB-X/XC32_Compiler/bin/bin/../../lib/gcc/pic32mx/4.8.3/../../../../pic32mx/lib/libc.a(doprnt.o)
 .data          0x00000000        0x0 /home/john/MPLAB-X/XC32_Compiler/bin/bin/../../lib/gcc/pic32mx/4.8.3/../../../../pic32mx/lib/libc.a(doprnt.o)
 .bss           0x00000000        0x0 /home/john/MPLAB-X/XC32_Compiler/bin/bin/../../lib/gcc/pic32mx/4.8.3/../../../../pic32mx/lib/libc.a(doprnt.o)
 .reginfo       0x00000000       0x18 /home/john/MPLAB-X/XC32_Compiler/bin/bin/../../lib/gcc/pic32mx/4.8.3/../../../../pic32mx/lib/libc.a(doprnt.o)
 .text          0x00000000        0x0 /home/john/MPLAB-X/XC32_Compiler/bin/bin/../../lib/gcc/pic32mx/4.8.3/../../../../pic32mx/lib/libc.a(doscan_s.eo)
 .data          0x00000000        0x0 /home/john/MPLAB-X/XC32_Compiler/bin/bin/../../lib/gcc/pic32mx/4.8.3/../../../../pic32mx/lib/libc.a(doscan_s.eo)
 .reginfo       0x00000000       0x18 /home/john/MPLAB-X/XC32_Compiler/bin/bin/../../lib/gcc/pic32mx/4.8.3/../../../../pic32mx/lib/libc.a(doscan_s.eo)
 .text          0x00000000        0x0 /home/john/MPLAB-X/XC32_Compiler/bin/bin/../../lib/gcc/pic32mx/4.8.3/../../../../pic32mx/lib/libc.a(fgetc.o)
 .data          0x00000000        0x0 /home/john/MPLAB-X/XC32_Compiler/bin/bin/../../lib/gcc/pic32mx/4.8.3/../../../../pic32mx/lib/libc.a(fgetc.o)
 .bss           0x00000000        0x0 /home/john/MPLAB-X/XC32_Compiler/bin/bin/../../lib/gcc/pic32mx/4.8.3/../../../../pic32mx/lib/libc.a(fgetc.o)
 .reginfo       0x00000000       0x18 /home/john/MPLAB-X/XC32_Compiler/bin/bin/../../lib/gcc/pic32mx/4.8.3/../../../../pic32mx/lib/libc.a(fgetc.o)
 .text          0x00000000        0x0 /home/john/MPLAB-X/XC32_Compiler/bin/bin/../../lib/gcc/pic32mx/4.8.3/../../../../pic32mx/lib/libc.a(_fputc_simple.o)
 .data          0x00000000        0x0 /home/john/MPLAB-X/XC32_Compiler/bin/bin/../../lib/gcc/pic32mx/4.8.3/../../../../pic32mx/lib/libc.a(_fputc_simple.o)
 .bss           0x00000000        0x0 /home/john/MPLAB-X/XC32_Compiler/bin/bin/../../lib/gcc/pic32mx/4.8.3/../../../../pic32mx/lib/libc.a(_fputc_simple.o)
 .reginfo       0x00000000       0x18 /home/john/MPLAB-X/XC32_Compiler/bin/bin/../../lib/gcc/pic32mx/4.8.3/../../../../pic32mx/lib/libc.a(_fputc_simple.o)
 .text          0x00000000        0x0 /home/john/MPLAB-X/XC32_Compiler/bin/bin/../../lib/gcc/pic32mx/4.8.3/../../../../pic32mx/lib/libc.a(atoi.o)
 .data          0x00000000        0x0 /home/john/MPLAB-X/XC32_Compiler/bin/bin/../../lib/gcc/pic32mx/4.8.3/../../../../pic32mx/lib/libc.a(atoi.o)
 .bss           0x00000000        0x0 /home/john/MPLAB-X/XC32_Compiler/bin/bin/../../lib/gcc/pic32mx/4.8.3/../../../../pic32mx/lib/libc.a(atoi.o)
 .reginfo       0x00000000       0x18 /home/john/MPLAB-X/XC32_Compiler/bin/bin/../../lib/gcc/pic32mx/4.8.3/../../../../pic32mx/lib/libc.a(atoi.o)
 .text          0x00000000        0x0 /home/john/MPLAB-X/XC32_Compiler/bin/bin/../../lib/gcc/pic32mx/4.8.3/../../../../pic32mx/lib/libc.a(ctype.o)
 .data          0x00000000        0x0 /home/john/MPLAB-X/XC32_Compiler/bin/bin/../../lib/gcc/pic32mx/4.8.3/../../../../pic32mx/lib/libc.a(ctype.o)
 .bss           0x00000000        0x0 /home/john/MPLAB-X/XC32_Compiler/bin/bin/../../lib/gcc/pic32mx/4.8.3/../../../../pic32mx/lib/libc.a(ctype.o)
 .reginfo       0x00000000       0x18 /home/john/MPLAB-X/XC32_Compiler/bin/bin/../../lib/gcc/pic32mx/4.8.3/../../../../pic32mx/lib/libc.a(ctype.o)
 .text          0x00000000        0x0 /home/john/MPLAB-X/XC32_Compiler/bin/bin/../../lib/gcc/pic32mx/4.8.3/../../../../pic32mx/lib/libc.a(ctypef.o)
 .data          0x00000000        0x0 /home/john/MPLAB-X/XC32_Compiler/bin/bin/../../lib/gcc/pic32mx/4.8.3/../../../../pic32mx/lib/libc.a(ctypef.o)
 .bss           0x00000000        0x0 /home/john/MPLAB-X/XC32_Compiler/bin/bin/../../lib/gcc/pic32mx/4.8.3/../../../../pic32mx/lib/libc.a(ctypef.o)
 .reginfo       0x00000000       0x18 /home/john/MPLAB-X/XC32_Compiler/bin/bin/../../lib/gcc/pic32mx/4.8.3/../../../../pic32mx/lib/libc.a(ctypef.o)
 .text.toupper  0x00000000       0x24 /home/john/MPLAB-X/XC32_Compiler/bin/bin/../../lib/gcc/pic32mx/4.8.3/../../../../pic32mx/lib/libc.a(ctypef.o)
 .text.isalnum  0x00000000       0x18 /home/john/MPLAB-X/XC32_Compiler/bin/bin/../../lib/gcc/pic32mx/4.8.3/../../../../pic32mx/lib/libc.a(ctypef.o)
 .text.isalpha  0x00000000       0x18 /home/john/MPLAB-X/XC32_Compiler/bin/bin/../../lib/gcc/pic32mx/4.8.3/../../../../pic32mx/lib/libc.a(ctypef.o)
 .text.isascii  0x00000000        0x8 /home/john/MPLAB-X/XC32_Compiler/bin/bin/../../lib/gcc/pic32mx/4.8.3/../../../../pic32mx/lib/libc.a(ctypef.o)
 .text.iscntrl  0x00000000       0x18 /home/john/MPLAB-X/XC32_Compiler/bin/bin/../../lib/gcc/pic32mx/4.8.3/../../../../pic32mx/lib/libc.a(ctypef.o)
 .text.isdigit  0x00000000       0x18 /home/john/MPLAB-X/XC32_Compiler/bin/bin/../../lib/gcc/pic32mx/4.8.3/../../../../pic32mx/lib/libc.a(ctypef.o)
 .text.isgraph  0x00000000       0x18 /home/john/MPLAB-X/XC32_Compiler/bin/bin/../../lib/gcc/pic32mx/4.8.3/../../../../pic32mx/lib/libc.a(ctypef.o)
 .text.islower  0x00000000       0x18 /home/john/MPLAB-X/XC32_Compiler/bin/bin/../../lib/gcc/pic32mx/4.8.3/../../../../pic32mx/lib/libc.a(ctypef.o)
 .text.isprint  0x00000000       0x18 /home/john/MPLAB-X/XC32_Compiler/bin/bin/../../lib/gcc/pic32mx/4.8.3/../../../../pic32mx/lib/libc.a(ctypef.o)
 .text.ispunct  0x00000000       0x18 /home/john/MPLAB-X/XC32_Compiler/bin/bin/../../lib/gcc/pic32mx/4.8.3/../../../../pic32mx/lib/libc.a(ctypef.o)
 .text.isspace  0x00000000       0x18 /home/john/MPLAB-X/XC32_Compiler/bin/bin/../../lib/gcc/pic32mx/4.8.3/../../../../pic32mx/lib/libc.a(ctypef.o)
 .text.isupper  0x00000000       0x18 /home/john/MPLAB-X/XC32_Compiler/bin/bin/../../lib/gcc/pic32mx/4.8.3/../../../../pic32mx/lib/libc.a(ctypef.o)
 .text.isxdigit
                0x00000000       0x18 /home/john/MPLAB-X/XC32_Compiler/bin/bin/../../lib/gcc/pic32mx/4.8.3/../../../../pic32mx/lib/libc.a(ctypef.o)
 .text.toascii  0x00000000        0x8 /home/john/MPLAB-X/XC32_Compiler/bin/bin/../../lib/gcc/pic32mx/4.8.3/../../../../pic32mx/lib/libc.a(ctypef.o)
 .text._tolower
                0x00000000        0x8 /home/john/MPLAB-X/XC32_Compiler/bin/bin/../../lib/gcc/pic32mx/4.8.3/../../../../pic32mx/lib/libc.a(ctypef.o)
 .text._toupper
                0x00000000        0x8 /home/john/MPLAB-X/XC32_Compiler/bin/bin/../../lib/gcc/pic32mx/4.8.3/../../../../pic32mx/lib/libc.a(ctypef.o)
 .text          0x00000000        0x0 /home/john/MPLAB-X/XC32_Compiler/bin/bin/../../lib/gcc/pic32mx/4.8.3/../../../../pic32mx/lib/libc.a(powersf.o)
 .data          0x00000000        0x0 /home/john/MPLAB-X/XC32_Compiler/bin/bin/../../lib/gcc/pic32mx/4.8.3/../../../../pic32mx/lib/libc.a(powersf.o)
 .bss           0x00000000        0x0 /home/john/MPLAB-X/XC32_Compiler/bin/bin/../../lib/gcc/pic32mx/4.8.3/../../../../pic32mx/lib/libc.a(powersf.o)
 .reginfo       0x00000000       0x18 /home/john/MPLAB-X/XC32_Compiler/bin/bin/../../lib/gcc/pic32mx/4.8.3/../../../../pic32mx/lib/libc.a(powersf.o)
 .text          0x00000000        0x0 /home/john/MPLAB-X/XC32_Compiler/bin/bin/../../lib/gcc/pic32mx/4.8.3/../../../../pic32mx/lib/libc.a(ungetc.o)
 .data          0x00000000        0x0 /home/john/MPLAB-X/XC32_Compiler/bin/bin/../../lib/gcc/pic32mx/4.8.3/../../../../pic32mx/lib/libc.a(ungetc.o)
 .bss           0x00000000        0x0 /home/john/MPLAB-X/XC32_Compiler/bin/bin/../../lib/gcc/pic32mx/4.8.3/../../../../pic32mx/lib/libc.a(ungetc.o)
 .reginfo       0x00000000       0x18 /home/john/MPLAB-X/XC32_Compiler/bin/bin/../../lib/gcc/pic32mx/4.8.3/../../../../pic32mx/lib/libc.a(ungetc.o)
 .text          0x00000000        0x0 /home/john/MPLAB-X/XC32_Compiler/bin/bin/../../lib/gcc/pic32mx/4.8.3/../../../../pic32mx/lib/libc.a(filbuf.o)
 .data          0x00000000        0x0 /home/john/MPLAB-X/XC32_Compiler/bin/bin/../../lib/gcc/pic32mx/4.8.3/../../../../pic32mx/lib/libc.a(filbuf.o)
 .bss           0x00000000        0x0 /home/john/MPLAB-X/XC32_Compiler/bin/bin/../../lib/gcc/pic32mx/4.8.3/../../../../pic32mx/lib/libc.a(filbuf.o)
 .reginfo       0x00000000       0x18 /home/john/MPLAB-X/XC32_Compiler/bin/bin/../../lib/gcc/pic32mx/4.8.3/../../../../pic32mx/lib/libc.a(filbuf.o)
 .text          0x00000000        0x0 /home/john/MPLAB-X/XC32_Compiler/bin/bin/../../lib/gcc/pic32mx/4.8.3/../../../../pic32mx/lib/libc.a(_flsbuf_simple.o)
 .data          0x00000000        0x0 /home/john/MPLAB-X/XC32_Compiler/bin/bin/../../lib/gcc/pic32mx/4.8.3/../../../../pic32mx/lib/libc.a(_flsbuf_simple.o)
 .bss           0x00000000        0x0 /home/john/MPLAB-X/XC32_Compiler/bin/bin/../../lib/gcc/pic32mx/4.8.3/../../../../pic32mx/lib/libc.a(_flsbuf_simple.o)
 .reginfo       0x00000000       0x18 /home/john/MPLAB-X/XC32_Compiler/bin/bin/../../lib/gcc/pic32mx/4.8.3/../../../../pic32mx/lib/libc.a(_flsbuf_simple.o)
 .text          0x00000000        0x0 /home/john/MPLAB-X/XC32_Compiler/bin/bin/../../lib/gcc/pic32mx/4.8.3/../../../../pic32mx/lib/libc.a(fflush.o)
 .data          0x00000000        0x0 /home/john/MPLAB-X/XC32_Compiler/bin/bin/../../lib/gcc/pic32mx/4.8.3/../../../../pic32mx/lib/libc.a(fflush.o)
 .bss           0x00000000        0x0 /home/john/MPLAB-X/XC32_Compiler/bin/bin/../../lib/gcc/pic32mx/4.8.3/../../../../pic32mx/lib/libc.a(fflush.o)
 .reginfo       0x00000000       0x18 /home/john/MPLAB-X/XC32_Compiler/bin/bin/../../lib/gcc/pic32mx/4.8.3/../../../../pic32mx/lib/libc.a(fflush.o)
 .text          0x00000000        0x0 /home/john/MPLAB-X/XC32_Compiler/bin/bin/../../lib/gcc/pic32mx/4.8.3/../../../../pic32mx/lib/libpic32.a(sbrk.o)
 .data          0x00000000        0x0 /home/john/MPLAB-X/XC32_Compiler/bin/bin/../../lib/gcc/pic32mx/4.8.3/../../../../pic32mx/lib/libpic32.a(sbrk.o)
 .reginfo       0x00000000       0x18 /home/john/MPLAB-X/XC32_Compiler/bin/bin/../../lib/gcc/pic32mx/4.8.3/../../../../pic32mx/lib/libpic32.a(sbrk.o)
 .text.getpagesize
                0x00000000        0x8 /home/john/MPLAB-X/XC32_Compiler/bin/bin/../../lib/gcc/pic32mx/4.8.3/../../../../pic32mx/lib/libpic32.a(sbrk.o)
 .text          0x00000000        0x0 /home/john/MPLAB-X/XC32_Compiler/bin/bin/../../lib/gcc/pic32mx/4.8.3/../../../../pic32mx/lib/libpic32.a(read.o)
 .data          0x00000000        0x0 /home/john/MPLAB-X/XC32_Compiler/bin/bin/../../lib/gcc/pic32mx/4.8.3/../../../../pic32mx/lib/libpic32.a(read.o)
 .bss           0x00000000        0x0 /home/john/MPLAB-X/XC32_Compiler/bin/bin/../../lib/gcc/pic32mx/4.8.3/../../../../pic32mx/lib/libpic32.a(read.o)
 .reginfo       0x00000000       0x18 /home/john/MPLAB-X/XC32_Compiler/bin/bin/../../lib/gcc/pic32mx/4.8.3/../../../../pic32mx/lib/libpic32.a(read.o)
 .text          0x00000000        0x0 /home/john/MPLAB-X/XC32_Compiler/bin/bin/../../lib/gcc/pic32mx/4.8.3/../../../../pic32mx/lib/libpic32.a(write.o)
 .data          0x00000000        0x0 /home/john/MPLAB-X/XC32_Compiler/bin/bin/../../lib/gcc/pic32mx/4.8.3/../../../../pic32mx/lib/libpic32.a(write.o)
 .bss           0x00000000        0x0 /home/john/MPLAB-X/XC32_Compiler/bin/bin/../../lib/gcc/pic32mx/4.8.3/../../../../pic32mx/lib/libpic32.a(write.o)
 .reginfo       0x00000000       0x18 /home/john/MPLAB-X/XC32_Compiler/bin/bin/../../lib/gcc/pic32mx/4.8.3/../../../../pic32mx/lib/libpic32.a(write.o)
 .text          0x00000000        0x0 /home/john/MPLAB-X/XC32_Compiler/bin/bin/../../lib/gcc/pic32mx/4.8.3/../../../../pic32mx/lib/libm.a(fp32div.o)
 .data          0x00000000        0x0 /home/john/MPLAB-X/XC32_Compiler/bin/bin/../../lib/gcc/pic32mx/4.8.3/../../../../pic32mx/lib/libm.a(fp32div.o)
 .bss           0x00000000        0x0 /home/john/MPLAB-X/XC32_Compiler/bin/bin/../../lib/gcc/pic32mx/4.8.3/../../../../pic32mx/lib/libm.a(fp32div.o)
 .reginfo       0x00000000       0x18 /home/john/MPLAB-X/XC32_Compiler/bin/bin/../../lib/gcc/pic32mx/4.8.3/../../../../pic32mx/lib/libm.a(fp32div.o)
 .text          0x00000000        0x0 /home/john/MPLAB-X/XC32_Compiler/bin/bin/../../lib/gcc/pic32mx/4.8.3/../../../../pic32mx/lib/libm.a(fp32mul.o)
 .data          0x00000000        0x0 /home/john/MPLAB-X/XC32_Compiler/bin/bin/../../lib/gcc/pic32mx/4.8.3/../../../../pic32mx/lib/libm.a(fp32mul.o)
 .bss           0x00000000        0x0 /home/john/MPLAB-X/XC32_Compiler/bin/bin/../../lib/gcc/pic32mx/4.8.3/../../../../pic32mx/lib/libm.a(fp32mul.o)
 .reginfo       0x00000000       0x18 /home/john/MPLAB-X/XC32_Compiler/bin/bin/../../lib/gcc/pic32mx/4.8.3/../../../../pic32mx/lib/libm.a(fp32mul.o)
 .text          0x00000000        0x0 /home/john/MPLAB-X/XC32_Compiler/bin/bin/../../lib/gcc/pic32mx/4.8.3/../../../../pic32mx/lib/libm.a(fp32subadd.o)
 .data          0x00000000        0x0 /home/john/MPLAB-X/XC32_Compiler/bin/bin/../../lib/gcc/pic32mx/4.8.3/../../../../pic32mx/lib/libm.a(fp32subadd.o)
 .bss           0x00000000        0x0 /home/john/MPLAB-X/XC32_Compiler/bin/bin/../../lib/gcc/pic32mx/4.8.3/../../../../pic32mx/lib/libm.a(fp32subadd.o)
 .reginfo       0x00000000       0x18 /home/john/MPLAB-X/XC32_Compiler/bin/bin/../../lib/gcc/pic32mx/4.8.3/../../../../pic32mx/lib/libm.a(fp32subadd.o)
 .text          0x00000000        0x0 /home/john/MPLAB-X/XC32_Compiler/bin/bin/../../lib/gcc/pic32mx/4.8.3/../../../../pic32mx/lib/libm.a(fpcmp.o)
 .data          0x00000000        0x0 /home/john/MPLAB-X/XC32_Compiler/bin/bin/../../lib/gcc/pic32mx/4.8.3/../../../../pic32mx/lib/libm.a(fpcmp.o)
 .bss           0x00000000        0x0 /home/john/MPLAB-X/XC32_Compiler/bin/bin/../../lib/gcc/pic32mx/4.8.3/../../../../pic32mx/lib/libm.a(fpcmp.o)
 .reginfo       0x00000000       0x18 /home/john/MPLAB-X/XC32_Compiler/bin/bin/../../lib/gcc/pic32mx/4.8.3/../../../../pic32mx/lib/libm.a(fpcmp.o)
 .text          0x00000000        0x0 /home/john/MPLAB-X/XC32_Compiler/bin/bin/../../lib/gcc/pic32mx/4.8.3/../../../../pic32mx/lib/libm.a(fpfrexp.o)
 .data          0x00000000        0x0 /home/john/MPLAB-X/XC32_Compiler/bin/bin/../../lib/gcc/pic32mx/4.8.3/../../../../pic32mx/lib/libm.a(fpfrexp.o)
 .bss           0x00000000        0x0 /home/john/MPLAB-X/XC32_Compiler/bin/bin/../../lib/gcc/pic32mx/4.8.3/../../../../pic32mx/lib/libm.a(fpfrexp.o)
 .reginfo       0x00000000       0x18 /home/john/MPLAB-X/XC32_Compiler/bin/bin/../../lib/gcc/pic32mx/4.8.3/../../../../pic32mx/lib/libm.a(fpfrexp.o)
 .text          0x00000000        0x0 /home/john/MPLAB-X/XC32_Compiler/bin/bin/../../lib/gcc/pic32mx/4.8.3/../../../../pic32mx/lib/libm.a(fptoul.o)
 .data          0x00000000        0x0 /home/john/MPLAB-X/XC32_Compiler/bin/bin/../../lib/gcc/pic32mx/4.8.3/../../../../pic32mx/lib/libm.a(fptoul.o)
 .bss           0x00000000        0x0 /home/john/MPLAB-X/XC32_Compiler/bin/bin/../../lib/gcc/pic32mx/4.8.3/../../../../pic32mx/lib/libm.a(fptoul.o)
 .reginfo       0x00000000       0x18 /home/john/MPLAB-X/XC32_Compiler/bin/bin/../../lib/gcc/pic32mx/4.8.3/../../../../pic32mx/lib/libm.a(fptoul.o)
 .text          0x00000000        0x0 /home/john/MPLAB-X/XC32_Compiler/bin/bin/../../lib/gcc/pic32mx/4.8.3/../../../../pic32mx/lib/libe.a(_floatdisf.o)
 .data          0x00000000        0x0 /home/john/MPLAB-X/XC32_Compiler/bin/bin/../../lib/gcc/pic32mx/4.8.3/../../../../pic32mx/lib/libe.a(_floatdisf.o)
 .bss           0x00000000        0x0 /home/john/MPLAB-X/XC32_Compiler/bin/bin/../../lib/gcc/pic32mx/4.8.3/../../../../pic32mx/lib/libe.a(_floatdisf.o)
 .reginfo       0x00000000       0x18 /home/john/MPLAB-X/XC32_Compiler/bin/bin/../../lib/gcc/pic32mx/4.8.3/../../../../pic32mx/lib/libe.a(_floatdisf.o)
 .data          0x00000000        0x0 /home/john/MPLAB-X/XC32_Compiler/bin/bin/../../lib/gcc/pic32mx/4.8.3/libgcc.a(_udivdi3.o)
 .bss           0x00000000        0x0 /home/john/MPLAB-X/XC32_Compiler/bin/bin/../../lib/gcc/pic32mx/4.8.3/libgcc.a(_udivdi3.o)
 .reginfo       0x00000000       0x18 /home/john/MPLAB-X/XC32_Compiler/bin/bin/../../lib/gcc/pic32mx/4.8.3/libgcc.a(_udivdi3.o)
 .data          0x00000000        0x0 /home/john/MPLAB-X/XC32_Compiler/bin/bin/../../lib/gcc/pic32mx/4.8.3/libgcc.a(_umoddi3.o)
 .bss           0x00000000        0x0 /home/john/MPLAB-X/XC32_Compiler/bin/bin/../../lib/gcc/pic32mx/4.8.3/libgcc.a(_umoddi3.o)
 .reginfo       0x00000000       0x18 /home/john/MPLAB-X/XC32_Compiler/bin/bin/../../lib/gcc/pic32mx/4.8.3/libgcc.a(_umoddi3.o)
 .data          0x00000000        0x0 /home/john/MPLAB-X/XC32_Compiler/bin/bin/../../lib/gcc/pic32mx/4.8.3/libgcc.a(floatunsisf.o)
 .bss           0x00000000        0x0 /home/john/MPLAB-X/XC32_Compiler/bin/bin/../../lib/gcc/pic32mx/4.8.3/libgcc.a(floatunsisf.o)
 .reginfo       0x00000000       0x18 /home/john/MPLAB-X/XC32_Compiler/bin/bin/../../lib/gcc/pic32mx/4.8.3/libgcc.a(floatunsisf.o)
 .text          0x00000000        0x0 /home/john/MPLAB-X/XC32_Compiler/bin/bin/../../lib/gcc/pic32mx/4.8.3/../../../../pic32mx/lib/libm.a(sitofp.o)
 .data          0x00000000        0x0 /home/john/MPLAB-X/XC32_Compiler/bin/bin/../../lib/gcc/pic32mx/4.8.3/../../../../pic32mx/lib/libm.a(sitofp.o)
 .bss           0x00000000        0x0 /home/john/MPLAB-X/XC32_Compiler/bin/bin/../../lib/gcc/pic32mx/4.8.3/../../../../pic32mx/lib/libm.a(sitofp.o)
 .reginfo       0x00000000       0x18 /home/john/MPLAB-X/XC32_Compiler/bin/bin/../../lib/gcc/pic32mx/4.8.3/../../../../pic32mx/lib/libm.a(sitofp.o)

Memory Configuration

Name             Origin             Length             Attributes
kseg0_boot_mem   0x9fc00490         0x00000970
kseg1_boot_mem   0xbfc00000         0x00000490
kseg0_program_mem 0x9d000000         0x00080000         xr
exception_mem    0x9fc01000         0x00001000
debug_exec_mem   0xbfc02000         0x00000ff0
config3          0xbfc02ff0         0x00000004
config2          0xbfc02ff4         0x00000004
config1          0xbfc02ff8         0x00000004
config0          0xbfc02ffc         0x00000004
kseg1_data_mem   0xa0000000         0x00020000         w !x
sfrs             0xbf800000         0x00100000
configsfrs       0xbfc02ff0         0x00000010
*default*        0x00000000         0xffffffff

Linker script and memory map


reserve_boot_0x1fc02000_kseg0
                0x9fc02000      0xff0
                0x9fc02000        0x2 SHORT 0x0
                0x00000500                . = 0x500
 *fill*         0x9fc02002      0x4fe 
                0x9fc02500                . = ALIGN (0x4)
                0x9fc02500        0x2 SHORT 0x0
                0x00000ff0                . = 0xff0
 *fill*         0x9fc02502      0xaee 
                0x9fc02ff0                . = ALIGN (0x4)

reserve_boot_0x1fc02000_kseg1
                0xbfc02000      0xff0
                0xbfc02000        0x2 SHORT 0x0
                0x00000500                . = 0x500
 *fill*         0xbfc02002      0x4fe 
                0xbfc02500                . = ALIGN (0x4)
                0xbfc02500        0x2 SHORT 0x0
                0x00000ff0                . = 0xff0
 *fill*         0xbfc02502      0xaee 
                0xbfc02ff0                . = ALIGN (0x4)
LOAD /home/john/MPLAB-X/XC32_Compiler/bin/bin/../../lib/gcc/pic32mx/4.8.3/../../../../pic32mx/lib/./proc/32MX795F512L/crt0_mips32r2.o
LOAD /home/john/MPLAB-X/XC32_Compiler/bin/bin/../../lib/gcc/pic32mx/4.8.3/../../../../pic32mx/lib/software-debug-break.o
                0x00000001                _DEBUGGER = 0x1
LOAD build/default/debug/_ext/1360937237/app_public.o
LOAD build/default/debug/_ext/1360937237/app.o
LOAD build/default/debug/_ext/1360937237/main.o
LOAD build/default/debug/_ext/382300584/drv_usart.o
LOAD build/default/debug/_ext/382300584/drv_usart_byte_model.o
LOAD build/default/debug/_ext/1964585049/osal_freertos.o
LOAD build/default/debug/_ext/207392127/sys_console.o
LOAD build/default/debug/_ext/207392127/sys_console_appio.o
LOAD build/default/debug/_ext/1952159421/sys_debug.o
LOAD build/default/debug/_ext/1921105363/sys_devcon.o
LOAD build/default/debug/_ext/1921105363/sys_devcon_pic32mx.o
LOAD build/default/debug/_ext/993332121/sys_int_pic32.o
LOAD build/default/debug/_ext/1458882252/croutine.o
LOAD build/default/debug/_ext/1458882252/list.o
LOAD build/default/debug/_ext/1458882252/queue.o
LOAD build/default/debug/_ext/1458882252/tasks.o
LOAD build/default/debug/_ext/1458882252/timers.o
LOAD build/default/debug/_ext/1458882252/event_groups.o
LOAD build/default/debug/_ext/628943767/heap_1.o
LOAD build/default/debug/_ext/1338673686/port.o
LOAD build/default/debug/_ext/1338673686/port_asm.o
LOAD build/default/debug/_ext/639803181/sys_clk_static.o
LOAD build/default/debug/_ext/822048611/sys_ports_static.o
LOAD build/default/debug/_ext/1688732426/system_init.o
LOAD build/default/debug/_ext/1688732426/system_interrupt.o
LOAD build/default/debug/_ext/1688732426/system_exceptions.o
LOAD build/default/debug/_ext/1688732426/system_tasks.o
LOAD build/default/debug/_ext/1688732426/system_interrupt_a.o
LOAD build/default/debug/_ext/1688732426/rtos_hooks.o
LOAD ../../../../../../../../../microchip/harmony/v1_08_01/bin/framework/peripheral/PIC32MX795F512L_peripherals.a
LOAD ../../../../../../../../../microchip/harmony/v1_08_01/framework/tcpip/src/crypto/aes_pic32mx.a
                0x00000001                __MPLAB_BUILD = 0x1
                0x00000001                __MPLAB_DEBUG = 0x1
                0x00000001                __DEBUG = 0x1
                0x00000001                __MPLAB_DEBUGGER_PK3 = 0x1
                0x00000800                _min_heap_size = 0x800
LOAD /home/john/MPLAB-X/XC32_Compiler/bin/bin/../../lib/gcc/pic32mx/4.8.3/../../../../pic32mx/lib/./proc/32MX795F512L/default_isr_vectors.o
LOAD /home/john/MPLAB-X/XC32_Compiler/bin/bin/../../lib/gcc/pic32mx/4.8.3/../../../../pic32mx/lib/pic32_software_reset.o
                0x00000400                PROVIDE (_min_stack_size, 0x400)
LOAD /home/john/MPLAB-X/XC32_Compiler/bin/bin/../../lib/gcc/pic32mx/4.8.3/../../../../pic32mx/lib/./proc/32MX795F512L/processor.o
START GROUP
LOAD libmchp_peripheral.a
END GROUP
START GROUP
LOAD libmchp_peripheral_32MX795F512L.a
END GROUP
                0x00000001                PROVIDE (_vector_spacing, 0x1)
                0x9fc01000                PROVIDE (_ebase_address, 0x9fc01000)
                0xbfc00000                _RESET_ADDR = 0xbfc00000
                0xbfc00380                _BEV_EXCPT_ADDR = 0xbfc00380
                0xbfc00480                _DBG_EXCPT_ADDR = 0xbfc00480
                0xbfc02000                _DBG_CODE_ADDR = 0xbfc02000
                0x00000ff0                _DBG_CODE_SIZE = 0xff0
                0x9fc01180                _GEN_EXCPT_ADDR = (_ebase_address + 0x180)

.config_BFC02FF0
                0xbfc02ff0        0x4
 *(.config_BFC02FF0)
 .config_BFC02FF0
                0xbfc02ff0        0x4 build/default/debug/_ext/1688732426/system_init.o

.config_BFC02FF4
                0xbfc02ff4        0x4
 *(.config_BFC02FF4)
 .config_BFC02FF4
                0xbfc02ff4        0x4 build/default/debug/_ext/1688732426/system_init.o

.config_BFC02FF8
                0xbfc02ff8        0x4
 *(.config_BFC02FF8)
 .config_BFC02FF8
                0xbfc02ff8        0x4 build/default/debug/_ext/1688732426/system_init.o

.config_BFC02FFC
                0xbfc02ffc        0x4
 *(.config_BFC02FFC)
 .config_BFC02FFC
                0xbfc02ffc        0x4 build/default/debug/_ext/1688732426/system_init.o
                0xbfc02000                PROVIDE (_DBG_CODE_ADDR, 0xbfc02000)
                0x00000ff0                PROVIDE (_DBG_CODE_SIZE, 0xff0)

.reset          0xbfc00000      0x208
 *(.reset)
 .reset         0xbfc00000        0x8 /home/john/MPLAB-X/XC32_Compiler/bin/bin/../../lib/gcc/pic32mx/4.8.3/../../../../pic32mx/lib/./proc/32MX795F512L/crt0_mips32r2.o
                0xbfc00000                _reset
 *(.reset.startup)
 .reset.startup
                0xbfc00008      0x200 /home/john/MPLAB-X/XC32_Compiler/bin/bin/../../lib/gcc/pic32mx/4.8.3/../../../../pic32mx/lib/./proc/32MX795F512L/crt0_mips32r2.o

.bev_excpt      0xbfc00380       0x10
 *(.bev_handler)
 .bev_handler   0xbfc00380       0x10 /home/john/MPLAB-X/XC32_Compiler/bin/bin/../../lib/gcc/pic32mx/4.8.3/../../../../pic32mx/lib/./proc/32MX795F512L/crt0_mips32r2.o

.dbg_excpt      0xbfc00480        0x8
                0xbfc00480                . = (. + DEFINED (_DEBUGGER)?0x8:0x0)
 *fill*         0xbfc00480        0x8 

.dbg_code       0xbfc02000      0xff0
                0xbfc02000                . = (. + DEFINED (_DEBUGGER)?_DBG_CODE_SIZE:0x0)
 *fill*         0xbfc02000      0xff0 

.app_excpt      0x9fc01180       0x10
 *(.gen_handler)
 .gen_handler   0x9fc01180       0x10 /home/john/MPLAB-X/XC32_Compiler/bin/bin/../../lib/gcc/pic32mx/4.8.3/../../../../pic32mx/lib/./proc/32MX795F512L/crt0_mips32r2.o

.vector_0       0x9fc01200        0x8
 *(.vector_0)
 .vector_0      0x9fc01200        0x8 /home/john/MPLAB-X/XC32_Compiler/bin/bin/../../lib/gcc/pic32mx/4.8.3/../../../../pic32mx/lib/libpic32.a(vector0.o)
                0x9fc01200                __vector_dispatch_0
                0x00000001                ASSERT (((_vector_spacing == 0x0) || (SIZEOF (.vector_0) <= (_vector_spacing << 0x5))), function at exception vector 0 too large)

.vector_1       0x9fc01220        0x8
 *(.vector_1)
 .vector_1      0x9fc01220        0x8 build/default/debug/_ext/1338673686/port.o
                0x9fc01220                __vector_dispatch_1
                0x00000001                ASSERT (((_vector_spacing == 0x0) || (SIZEOF (.vector_1) <= (_vector_spacing << 0x5))), function at exception vector 1 too large)

.vector_2       0x9fc01240        0x8
 *(.vector_2)
 .vector_2      0x9fc01240        0x8 /home/john/MPLAB-X/XC32_Compiler/bin/bin/../../lib/gcc/pic32mx/4.8.3/../../../../pic32mx/lib/libpic32.a(vector2.o)
                0x9fc01240                __vector_dispatch_2
                0x00000001                ASSERT (((_vector_spacing == 0x0) || (SIZEOF (.vector_2) <= (_vector_spacing << 0x5))), function at exception vector 2 too large)

.vector_3       0x9fc01260        0x8
 *(.vector_3)
 .vector_3      0x9fc01260        0x8 /home/john/MPLAB-X/XC32_Compiler/bin/bin/../../lib/gcc/pic32mx/4.8.3/../../../../pic32mx/lib/libpic32.a(vector3.o)
                0x9fc01260                __vector_dispatch_3
                0x00000001                ASSERT (((_vector_spacing == 0x0) || (SIZEOF (.vector_3) <= (_vector_spacing << 0x5))), function at exception vector 3 too large)

.vector_4       0x9fc01280        0x8
 *(.vector_4)
 .vector_4      0x9fc01280        0x8 build/default/debug/_ext/1338673686/port.o
                0x9fc01280                __vector_dispatch_4
                0x00000001                ASSERT (((_vector_spacing == 0x0) || (SIZEOF (.vector_4) <= (_vector_spacing << 0x5))), function at exception vector 4 too large)

.vector_5       0x9fc012a0        0x8
 *(.vector_5)
 .vector_5      0x9fc012a0        0x8 /home/john/MPLAB-X/XC32_Compiler/bin/bin/../../lib/gcc/pic32mx/4.8.3/../../../../pic32mx/lib/libpic32.a(vector5.o)
                0x9fc012a0                __vector_dispatch_5
                0x00000001                ASSERT (((_vector_spacing == 0x0) || (SIZEOF (.vector_5) <= (_vector_spacing << 0x5))), function at exception vector 5 too large)

.vector_6       0x9fc012c0        0x8
 *(.vector_6)
 .vector_6      0x9fc012c0        0x8 /home/john/MPLAB-X/XC32_Compiler/bin/bin/../../lib/gcc/pic32mx/4.8.3/../../../../pic32mx/lib/libpic32.a(vector6.o)
                0x9fc012c0                __vector_dispatch_6
                0x00000001                ASSERT (((_vector_spacing == 0x0) || (SIZEOF (.vector_6) <= (_vector_spacing << 0x5))), function at exception vector 6 too large)

.vector_7       0x9fc012e0        0x8
 *(.vector_7)
 .vector_7      0x9fc012e0        0x8 /home/john/MPLAB-X/XC32_Compiler/bin/bin/../../lib/gcc/pic32mx/4.8.3/../../../../pic32mx/lib/libpic32.a(vector7.o)
                0x9fc012e0                __vector_dispatch_7
                0x00000001                ASSERT (((_vector_spacing == 0x0) || (SIZEOF (.vector_7) <= (_vector_spacing << 0x5))), function at exception vector 7 too large)

.vector_8       0x9fc01300        0x8
 *(.vector_8)
 .vector_8      0x9fc01300        0x8 /home/john/MPLAB-X/XC32_Compiler/bin/bin/../../lib/gcc/pic32mx/4.8.3/../../../../pic32mx/lib/libpic32.a(vector8.o)
                0x9fc01300                __vector_dispatch_8
                0x00000001                ASSERT (((_vector_spacing == 0x0) || (SIZEOF (.vector_8) <= (_vector_spacing << 0x5))), function at exception vector 8 too large)

.vector_9       0x9fc01320        0x8
 *(.vector_9)
 .vector_9      0x9fc01320        0x8 /home/john/MPLAB-X/XC32_Compiler/bin/bin/../../lib/gcc/pic32mx/4.8.3/../../../../pic32mx/lib/libpic32.a(vector9.o)
                0x9fc01320                __vector_dispatch_9
                0x00000001                ASSERT (((_vector_spacing == 0x0) || (SIZEOF (.vector_9) <= (_vector_spacing << 0x5))), function at exception vector 9 too large)

.vector_10      0x9fc01340        0x8
 *(.vector_10)
 .vector_10     0x9fc01340        0x8 /home/john/MPLAB-X/XC32_Compiler/bin/bin/../../lib/gcc/pic32mx/4.8.3/../../../../pic32mx/lib/libpic32.a(vector10.o)
                0x9fc01340                __vector_dispatch_10
                0x00000001                ASSERT (((_vector_spacing == 0x0) || (SIZEOF (.vector_10) <= (_vector_spacing << 0x5))), function at exception vector 10 too large)

.vector_11      0x9fc01360        0x8
 *(.vector_11)
 .vector_11     0x9fc01360        0x8 /home/john/MPLAB-X/XC32_Compiler/bin/bin/../../lib/gcc/pic32mx/4.8.3/../../../../pic32mx/lib/libpic32.a(vector11.o)
                0x9fc01360                __vector_dispatch_11
                0x00000001                ASSERT (((_vector_spacing == 0x0) || (SIZEOF (.vector_11) <= (_vector_spacing << 0x5))), function at exception vector 11 too large)

.vector_12      0x9fc01380        0x8
 *(.vector_12)
 .vector_12     0x9fc01380        0x8 /home/john/MPLAB-X/XC32_Compiler/bin/bin/../../lib/gcc/pic32mx/4.8.3/../../../../pic32mx/lib/libpic32.a(vector12.o)
                0x9fc01380                __vector_dispatch_12
                0x00000001                ASSERT (((_vector_spacing == 0x0) || (SIZEOF (.vector_12) <= (_vector_spacing << 0x5))), function at exception vector 12 too large)

.vector_13      0x9fc013a0        0x8
 *(.vector_13)
 .vector_13     0x9fc013a0        0x8 /home/john/MPLAB-X/XC32_Compiler/bin/bin/../../lib/gcc/pic32mx/4.8.3/../../../../pic32mx/lib/libpic32.a(vector13.o)
                0x9fc013a0                __vector_dispatch_13
                0x00000001                ASSERT (((_vector_spacing == 0x0) || (SIZEOF (.vector_13) <= (_vector_spacing << 0x5))), function at exception vector 13 too large)

.vector_14      0x9fc013c0        0x8
 *(.vector_14)
 .vector_14     0x9fc013c0        0x8 /home/john/MPLAB-X/XC32_Compiler/bin/bin/../../lib/gcc/pic32mx/4.8.3/../../../../pic32mx/lib/libpic32.a(vector14.o)
                0x9fc013c0                __vector_dispatch_14
                0x00000001                ASSERT (((_vector_spacing == 0x0) || (SIZEOF (.vector_14) <= (_vector_spacing << 0x5))), function at exception vector 14 too large)

.vector_15      0x9fc013e0        0x8
 *(.vector_15)
 .vector_15     0x9fc013e0        0x8 /home/john/MPLAB-X/XC32_Compiler/bin/bin/../../lib/gcc/pic32mx/4.8.3/../../../../pic32mx/lib/libpic32.a(vector15.o)
                0x9fc013e0                __vector_dispatch_15
                0x00000001                ASSERT (((_vector_spacing == 0x0) || (SIZEOF (.vector_15) <= (_vector_spacing << 0x5))), function at exception vector 15 too large)

.vector_16      0x9fc01400        0x8
 *(.vector_16)
 .vector_16     0x9fc01400        0x8 /home/john/MPLAB-X/XC32_Compiler/bin/bin/../../lib/gcc/pic32mx/4.8.3/../../../../pic32mx/lib/libpic32.a(vector16.o)
                0x9fc01400                __vector_dispatch_16
                0x00000001                ASSERT (((_vector_spacing == 0x0) || (SIZEOF (.vector_16) <= (_vector_spacing << 0x5))), function at exception vector 16 too large)

.vector_17      0x9fc01420        0x8
 *(.vector_17)
 .vector_17     0x9fc01420        0x8 /home/john/MPLAB-X/XC32_Compiler/bin/bin/../../lib/gcc/pic32mx/4.8.3/../../../../pic32mx/lib/libpic32.a(vector17.o)
                0x9fc01420                __vector_dispatch_17
                0x00000001                ASSERT (((_vector_spacing == 0x0) || (SIZEOF (.vector_17) <= (_vector_spacing << 0x5))), function at exception vector 17 too large)

.vector_18      0x9fc01440        0x8
 *(.vector_18)
 .vector_18     0x9fc01440        0x8 /home/john/MPLAB-X/XC32_Compiler/bin/bin/../../lib/gcc/pic32mx/4.8.3/../../../../pic32mx/lib/libpic32.a(vector18.o)
                0x9fc01440                __vector_dispatch_18
                0x00000001                ASSERT (((_vector_spacing == 0x0) || (SIZEOF (.vector_18) <= (_vector_spacing << 0x5))), function at exception vector 18 too large)

.vector_19      0x9fc01460        0x8
 *(.vector_19)
 .vector_19     0x9fc01460        0x8 /home/john/MPLAB-X/XC32_Compiler/bin/bin/../../lib/gcc/pic32mx/4.8.3/../../../../pic32mx/lib/libpic32.a(vector19.o)
                0x9fc01460                __vector_dispatch_19
                0x00000001                ASSERT (((_vector_spacing == 0x0) || (SIZEOF (.vector_19) <= (_vector_spacing << 0x5))), function at exception vector 19 too large)

.vector_20      0x9fc01480        0x8
 *(.vector_20)
 .vector_20     0x9fc01480        0x8 /home/john/MPLAB-X/XC32_Compiler/bin/bin/../../lib/gcc/pic32mx/4.8.3/../../../../pic32mx/lib/libpic32.a(vector20.o)
                0x9fc01480                __vector_dispatch_20
                0x00000001                ASSERT (((_vector_spacing == 0x0) || (SIZEOF (.vector_20) <= (_vector_spacing << 0x5))), function at exception vector 20 too large)

.vector_21      0x9fc014a0        0x8
 *(.vector_21)
 .vector_21     0x9fc014a0        0x8 /home/john/MPLAB-X/XC32_Compiler/bin/bin/../../lib/gcc/pic32mx/4.8.3/../../../../pic32mx/lib/libpic32.a(vector21.o)
                0x9fc014a0                __vector_dispatch_21
                0x00000001                ASSERT (((_vector_spacing == 0x0) || (SIZEOF (.vector_21) <= (_vector_spacing << 0x5))), function at exception vector 21 too large)

.vector_22      0x9fc014c0        0x8
 *(.vector_22)
 .vector_22     0x9fc014c0        0x8 /home/john/MPLAB-X/XC32_Compiler/bin/bin/../../lib/gcc/pic32mx/4.8.3/../../../../pic32mx/lib/libpic32.a(vector22.o)
                0x9fc014c0                __vector_dispatch_22
                0x00000001                ASSERT (((_vector_spacing == 0x0) || (SIZEOF (.vector_22) <= (_vector_spacing << 0x5))), function at exception vector 22 too large)

.vector_23      0x9fc014e0        0x8
 *(.vector_23)
 .vector_23     0x9fc014e0        0x8 /home/john/MPLAB-X/XC32_Compiler/bin/bin/../../lib/gcc/pic32mx/4.8.3/../../../../pic32mx/lib/libpic32.a(vector23.o)
                0x9fc014e0                __vector_dispatch_23
                0x00000001                ASSERT (((_vector_spacing == 0x0) || (SIZEOF (.vector_23) <= (_vector_spacing << 0x5))), function at exception vector 23 too large)

.vector_24      0x9fc01500       0x10
 *(.vector_24)
 .vector_24     0x9fc01500       0x10 build/default/debug/_ext/1688732426/system_interrupt_a.o
                0x9fc01500                __vector_dispatch_24
                0x00000001                ASSERT (((_vector_spacing == 0x0) || (SIZEOF (.vector_24) <= (_vector_spacing << 0x5))), function at exception vector 24 too large)

.vector_25      0x9fc01520        0x8
 *(.vector_25)
 .vector_25     0x9fc01520        0x8 /home/john/MPLAB-X/XC32_Compiler/bin/bin/../../lib/gcc/pic32mx/4.8.3/../../../../pic32mx/lib/libpic32.a(vector25.o)
                0x9fc01520                __vector_dispatch_25
                0x00000001                ASSERT (((_vector_spacing == 0x0) || (SIZEOF (.vector_25) <= (_vector_spacing << 0x5))), function at exception vector 25 too large)

.vector_26      0x9fc01540        0x8
 *(.vector_26)
 .vector_26     0x9fc01540        0x8 /home/john/MPLAB-X/XC32_Compiler/bin/bin/../../lib/gcc/pic32mx/4.8.3/../../../../pic32mx/lib/libpic32.a(vector26.o)
                0x9fc01540                __vector_dispatch_26
                0x00000001                ASSERT (((_vector_spacing == 0x0) || (SIZEOF (.vector_26) <= (_vector_spacing << 0x5))), function at exception vector 26 too large)

.vector_27      0x9fc01560        0x8
 *(.vector_27)
 .vector_27     0x9fc01560        0x8 /home/john/MPLAB-X/XC32_Compiler/bin/bin/../../lib/gcc/pic32mx/4.8.3/../../../../pic32mx/lib/libpic32.a(vector27.o)
                0x9fc01560                __vector_dispatch_27
                0x00000001                ASSERT (((_vector_spacing == 0x0) || (SIZEOF (.vector_27) <= (_vector_spacing << 0x5))), function at exception vector 27 too large)

.vector_28      0x9fc01580        0x8
 *(.vector_28)
 .vector_28     0x9fc01580        0x8 /home/john/MPLAB-X/XC32_Compiler/bin/bin/../../lib/gcc/pic32mx/4.8.3/../../../../pic32mx/lib/libpic32.a(vector28.o)
                0x9fc01580                __vector_dispatch_28
                0x00000001                ASSERT (((_vector_spacing == 0x0) || (SIZEOF (.vector_28) <= (_vector_spacing << 0x5))), function at exception vector 28 too large)

.vector_29      0x9fc015a0        0x8
 *(.vector_29)
 .vector_29     0x9fc015a0        0x8 /home/john/MPLAB-X/XC32_Compiler/bin/bin/../../lib/gcc/pic32mx/4.8.3/../../../../pic32mx/lib/libpic32.a(vector29.o)
                0x9fc015a0                __vector_dispatch_29
                0x00000001                ASSERT (((_vector_spacing == 0x0) || (SIZEOF (.vector_29) <= (_vector_spacing << 0x5))), function at exception vector 29 too large)

.vector_30      0x9fc015c0        0x8
 *(.vector_30)
 .vector_30     0x9fc015c0        0x8 /home/john/MPLAB-X/XC32_Compiler/bin/bin/../../lib/gcc/pic32mx/4.8.3/../../../../pic32mx/lib/libpic32.a(vector30.o)
                0x9fc015c0                __vector_dispatch_30
                0x00000001                ASSERT (((_vector_spacing == 0x0) || (SIZEOF (.vector_30) <= (_vector_spacing << 0x5))), function at exception vector 30 too large)

.vector_31      0x9fc015e0        0x8
 *(.vector_31)
 .vector_31     0x9fc015e0        0x8 /home/john/MPLAB-X/XC32_Compiler/bin/bin/../../lib/gcc/pic32mx/4.8.3/../../../../pic32mx/lib/libpic32.a(vector31.o)
                0x9fc015e0                __vector_dispatch_31
                0x00000001                ASSERT (((_vector_spacing == 0x0) || (SIZEOF (.vector_31) <= (_vector_spacing << 0x5))), function at exception vector 31 too large)

.vector_32      0x9fc01600        0x8
 *(.vector_32)
 .vector_32     0x9fc01600        0x8 /home/john/MPLAB-X/XC32_Compiler/bin/bin/../../lib/gcc/pic32mx/4.8.3/../../../../pic32mx/lib/libpic32.a(vector32.o)
                0x9fc01600                __vector_dispatch_32
                0x00000001                ASSERT (((_vector_spacing == 0x0) || (SIZEOF (.vector_32) <= (_vector_spacing << 0x5))), function at exception vector 32 too large)

.vector_33      0x9fc01620        0x8
 *(.vector_33)
 .vector_33     0x9fc01620        0x8 /home/john/MPLAB-X/XC32_Compiler/bin/bin/../../lib/gcc/pic32mx/4.8.3/../../../../pic32mx/lib/libpic32.a(vector33.o)
                0x9fc01620                __vector_dispatch_33
                0x00000001                ASSERT (((_vector_spacing == 0x0) || (SIZEOF (.vector_33) <= (_vector_spacing << 0x5))), function at exception vector 33 too large)

.vector_34      0x9fc01640        0x8
 *(.vector_34)
 .vector_34     0x9fc01640        0x8 /home/john/MPLAB-X/XC32_Compiler/bin/bin/../../lib/gcc/pic32mx/4.8.3/../../../../pic32mx/lib/libpic32.a(vector34.o)
                0x9fc01640                __vector_dispatch_34
                0x00000001                ASSERT (((_vector_spacing == 0x0) || (SIZEOF (.vector_34) <= (_vector_spacing << 0x5))), function at exception vector 34 too large)

.vector_35      0x9fc01660        0x8
 *(.vector_35)
 .vector_35     0x9fc01660        0x8 /home/john/MPLAB-X/XC32_Compiler/bin/bin/../../lib/gcc/pic32mx/4.8.3/../../../../pic32mx/lib/libpic32.a(vector35.o)
                0x9fc01660                __vector_dispatch_35
                0x00000001                ASSERT (((_vector_spacing == 0x0) || (SIZEOF (.vector_35) <= (_vector_spacing << 0x5))), function at exception vector 35 too large)

.vector_36      0x9fc01680        0x8
 *(.vector_36)
 .vector_36     0x9fc01680        0x8 /home/john/MPLAB-X/XC32_Compiler/bin/bin/../../lib/gcc/pic32mx/4.8.3/../../../../pic32mx/lib/libpic32.a(vector36.o)
                0x9fc01680                __vector_dispatch_36
                0x00000001                ASSERT (((_vector_spacing == 0x0) || (SIZEOF (.vector_36) <= (_vector_spacing << 0x5))), function at exception vector 36 too large)

.vector_37      0x9fc016a0        0x8
 *(.vector_37)
 .vector_37     0x9fc016a0        0x8 /home/john/MPLAB-X/XC32_Compiler/bin/bin/../../lib/gcc/pic32mx/4.8.3/../../../../pic32mx/lib/libpic32.a(vector37.o)
                0x9fc016a0                __vector_dispatch_37
                0x00000001                ASSERT (((_vector_spacing == 0x0) || (SIZEOF (.vector_37) <= (_vector_spacing << 0x5))), function at exception vector 37 too large)

.vector_38      0x9fc016c0        0x8
 *(.vector_38)
 .vector_38     0x9fc016c0        0x8 /home/john/MPLAB-X/XC32_Compiler/bin/bin/../../lib/gcc/pic32mx/4.8.3/../../../../pic32mx/lib/libpic32.a(vector38.o)
                0x9fc016c0                __vector_dispatch_38
                0x00000001                ASSERT (((_vector_spacing == 0x0) || (SIZEOF (.vector_38) <= (_vector_spacing << 0x5))), function at exception vector 38 too large)

.vector_39      0x9fc016e0        0x8
 *(.vector_39)
 .vector_39     0x9fc016e0        0x8 /home/john/MPLAB-X/XC32_Compiler/bin/bin/../../lib/gcc/pic32mx/4.8.3/../../../../pic32mx/lib/libpic32.a(vector39.o)
                0x9fc016e0                __vector_dispatch_39
                0x00000001                ASSERT (((_vector_spacing == 0x0) || (SIZEOF (.vector_39) <= (_vector_spacing << 0x5))), function at exception vector 39 too large)

.vector_40      0x9fc01700        0x8
 *(.vector_40)
 .vector_40     0x9fc01700        0x8 /home/john/MPLAB-X/XC32_Compiler/bin/bin/../../lib/gcc/pic32mx/4.8.3/../../../../pic32mx/lib/libpic32.a(vector40.o)
                0x9fc01700                __vector_dispatch_40
                0x00000001                ASSERT (((_vector_spacing == 0x0) || (SIZEOF (.vector_40) <= (_vector_spacing << 0x5))), function at exception vector 40 too large)

.vector_41      0x9fc01720        0x8
 *(.vector_41)
 .vector_41     0x9fc01720        0x8 /home/john/MPLAB-X/XC32_Compiler/bin/bin/../../lib/gcc/pic32mx/4.8.3/../../../../pic32mx/lib/libpic32.a(vector41.o)
                0x9fc01720                __vector_dispatch_41
                0x00000001                ASSERT (((_vector_spacing == 0x0) || (SIZEOF (.vector_41) <= (_vector_spacing << 0x5))), function at exception vector 41 too large)

.vector_42      0x9fc01740        0x8
 *(.vector_42)
 .vector_42     0x9fc01740        0x8 /home/john/MPLAB-X/XC32_Compiler/bin/bin/../../lib/gcc/pic32mx/4.8.3/../../../../pic32mx/lib/libpic32.a(vector42.o)
                0x9fc01740                __vector_dispatch_42
                0x00000001                ASSERT (((_vector_spacing == 0x0) || (SIZEOF (.vector_42) <= (_vector_spacing << 0x5))), function at exception vector 42 too large)

.vector_43      0x9fc01760        0x8
 *(.vector_43)
 .vector_43     0x9fc01760        0x8 /home/john/MPLAB-X/XC32_Compiler/bin/bin/../../lib/gcc/pic32mx/4.8.3/../../../../pic32mx/lib/libpic32.a(vector43.o)
                0x9fc01760                __vector_dispatch_43
                0x00000001                ASSERT (((_vector_spacing == 0x0) || (SIZEOF (.vector_43) <= (_vector_spacing << 0x5))), function at exception vector 43 too large)

.vector_44      0x9fc01780        0x8
 *(.vector_44)
 .vector_44     0x9fc01780        0x8 /home/john/MPLAB-X/XC32_Compiler/bin/bin/../../lib/gcc/pic32mx/4.8.3/../../../../pic32mx/lib/libpic32.a(vector44.o)
                0x9fc01780                __vector_dispatch_44
                0x00000001                ASSERT (((_vector_spacing == 0x0) || (SIZEOF (.vector_44) <= (_vector_spacing << 0x5))), function at exception vector 44 too large)

.vector_45      0x9fc017a0        0x8
 *(.vector_45)
 .vector_45     0x9fc017a0        0x8 /home/john/MPLAB-X/XC32_Compiler/bin/bin/../../lib/gcc/pic32mx/4.8.3/../../../../pic32mx/lib/libpic32.a(vector45.o)
                0x9fc017a0                __vector_dispatch_45
                0x00000001                ASSERT (((_vector_spacing == 0x0) || (SIZEOF (.vector_45) <= (_vector_spacing << 0x5))), function at exception vector 45 too large)

.vector_46      0x9fc017c0        0x8
 *(.vector_46)
 .vector_46     0x9fc017c0        0x8 /home/john/MPLAB-X/XC32_Compiler/bin/bin/../../lib/gcc/pic32mx/4.8.3/../../../../pic32mx/lib/libpic32.a(vector46.o)
                0x9fc017c0                __vector_dispatch_46
                0x00000001                ASSERT (((_vector_spacing == 0x0) || (SIZEOF (.vector_46) <= (_vector_spacing << 0x5))), function at exception vector 46 too large)

.vector_47      0x9fc017e0        0x8
 *(.vector_47)
 .vector_47     0x9fc017e0        0x8 /home/john/MPLAB-X/XC32_Compiler/bin/bin/../../lib/gcc/pic32mx/4.8.3/../../../../pic32mx/lib/libpic32.a(vector47.o)
                0x9fc017e0                __vector_dispatch_47
                0x00000001                ASSERT (((_vector_spacing == 0x0) || (SIZEOF (.vector_47) <= (_vector_spacing << 0x5))), function at exception vector 47 too large)

.vector_48      0x9fc01800        0x8
 *(.vector_48)
 .vector_48     0x9fc01800        0x8 /home/john/MPLAB-X/XC32_Compiler/bin/bin/../../lib/gcc/pic32mx/4.8.3/../../../../pic32mx/lib/libpic32.a(vector48.o)
                0x9fc01800                __vector_dispatch_48
                0x00000001                ASSERT (((_vector_spacing == 0x0) || (SIZEOF (.vector_48) <= (_vector_spacing << 0x5))), function at exception vector 48 too large)

.vector_49      0x9fc01820        0x8
 *(.vector_49)
 .vector_49     0x9fc01820        0x8 /home/john/MPLAB-X/XC32_Compiler/bin/bin/../../lib/gcc/pic32mx/4.8.3/../../../../pic32mx/lib/libpic32.a(vector49.o)
                0x9fc01820                __vector_dispatch_49
                0x00000001                ASSERT (((_vector_spacing == 0x0) || (SIZEOF (.vector_49) <= (_vector_spacing << 0x5))), function at exception vector 49 too large)

.vector_50      0x9fc01840        0x8
 *(.vector_50)
 .vector_50     0x9fc01840        0x8 /home/john/MPLAB-X/XC32_Compiler/bin/bin/../../lib/gcc/pic32mx/4.8.3/../../../../pic32mx/lib/libpic32.a(vector50.o)
                0x9fc01840                __vector_dispatch_50
                0x00000001                ASSERT (((_vector_spacing == 0x0) || (SIZEOF (.vector_50) <= (_vector_spacing << 0x5))), function at exception vector 50 too large)

.vector_51      0x9fc01860        0x8
 *(.vector_51)
 .vector_51     0x9fc01860        0x8 /home/john/MPLAB-X/XC32_Compiler/bin/bin/../../lib/gcc/pic32mx/4.8.3/../../../../pic32mx/lib/libpic32.a(vector51.o)
                0x9fc01860                __vector_dispatch_51
                0x00000001                ASSERT (((_vector_spacing == 0x0) || (SIZEOF (.vector_51) <= (_vector_spacing << 0x5))), function at exception vector 51 too large)

.vector_52      0x9fc01880        0x0
 *(.vector_52)
                0x00000001                ASSERT (((_vector_spacing == 0x0) || (SIZEOF (.vector_52) <= (_vector_spacing << 0x5))), function at exception vector 52 too large)

.vector_53      0x9fc018a0        0x0
 *(.vector_53)
                0x00000001                ASSERT (((_vector_spacing == 0x0) || (SIZEOF (.vector_53) <= (_vector_spacing << 0x5))), function at exception vector 53 too large)

.vector_54      0x9fc018c0        0x0
 *(.vector_54)
                0x00000001                ASSERT (((_vector_spacing == 0x0) || (SIZEOF (.vector_54) <= (_vector_spacing << 0x5))), function at exception vector 54 too large)

.vector_55      0x9fc018e0        0x0
 *(.vector_55)
                0x00000001                ASSERT (((_vector_spacing == 0x0) || (SIZEOF (.vector_55) <= (_vector_spacing << 0x5))), function at exception vector 55 too large)

.vector_56      0x9fc01900        0x0
 *(.vector_56)
                0x00000001                ASSERT (((_vector_spacing == 0x0) || (SIZEOF (.vector_56) <= (_vector_spacing << 0x5))), function at exception vector 56 too large)

.vector_57      0x9fc01920        0x0
 *(.vector_57)
                0x00000001                ASSERT (((_vector_spacing == 0x0) || (SIZEOF (.vector_57) <= (_vector_spacing << 0x5))), function at exception vector 57 too large)

.vector_58      0x9fc01940        0x0
 *(.vector_58)
                0x00000001                ASSERT (((_vector_spacing == 0x0) || (SIZEOF (.vector_58) <= (_vector_spacing << 0x5))), function at exception vector 58 too large)

.vector_59      0x9fc01960        0x0
 *(.vector_59)
                0x00000001                ASSERT (((_vector_spacing == 0x0) || (SIZEOF (.vector_59) <= (_vector_spacing << 0x5))), function at exception vector 59 too large)

.vector_60      0x9fc01980        0x0
 *(.vector_60)
                0x00000001                ASSERT (((_vector_spacing == 0x0) || (SIZEOF (.vector_60) <= (_vector_spacing << 0x5))), function at exception vector 60 too large)

.vector_61      0x9fc019a0        0x0
 *(.vector_61)
                0x00000001                ASSERT (((_vector_spacing == 0x0) || (SIZEOF (.vector_61) <= (_vector_spacing << 0x5))), function at exception vector 61 too large)

.vector_62      0x9fc019c0        0x0
 *(.vector_62)
                0x00000001                ASSERT (((_vector_spacing == 0x0) || (SIZEOF (.vector_62) <= (_vector_spacing << 0x5))), function at exception vector 62 too large)

.vector_63      0x9fc019e0        0x0
 *(.vector_63)
                0x00000001                ASSERT (((_vector_spacing == 0x0) || (SIZEOF (.vector_63) <= (_vector_spacing << 0x5))), function at exception vector 63 too large)

.startup
 *(.startup)

.text           0x9d000000        0x0
 *(.stub .gnu.linkonce.t.*)
 *(.text.*personality*)
 *(.mips16.fn.*)
 *(.mips16.call.*)
 *(.gnu.warning)
                0x9d000000                . = ALIGN (0x4)

.init           0x9d000000        0x0
 *crti.o(.init)
 *crtbegin.o(.init)
 *(EXCLUDE_FILE(*crtn.o *crtend?.o *crtend.o) .init)
 *crtend.o(.init)
 *crtn.o(.init)
                0x9d000000                . = ALIGN (0x4)

.fini           0x9d000000        0x0
 *(.fini)
                0x9d000000                . = ALIGN (0x4)

.preinit_array  0x9d000000        0x0
                0x9d000000                PROVIDE (__preinit_array_start, .)
 *(.preinit_array)
                0x9d000000                PROVIDE (__preinit_array_end, .)
                0x9d000000                . = ALIGN (0x4)

.init_array     0x9d000000        0x0
                0x9d000000                PROVIDE (__init_array_start, .)
 *(SORT(.init_array.*))
 *(.init_array)
                0x9d000000                PROVIDE (__init_array_end, .)
                0x9d000000                . = ALIGN (0x4)

.fini_array     0x9d000000        0x0
                0x9d000000                PROVIDE (__fini_array_start, .)
 *(SORT(.fini_array.*))
 *(.fini_array)
                0x9d000000                PROVIDE (__fini_array_end, .)
                0x9d000000                . = ALIGN (0x4)

.ctors          0x9d000000        0x0
 *crtbegin.o(.ctors)
 *crtbegin?.o(.ctors)
 *(EXCLUDE_FILE(*crtend?.o *crtend.o) .ctors)
 *(SORT(.ctors.*))
 *(.ctors)
                0x9d000000                . = ALIGN (0x4)

.dtors          0x9d000000        0x0
 *crtbegin.o(.dtors)
 *crtbegin?.o(.dtors)
 *(EXCLUDE_FILE(*crtend?.o *crtend.o) .dtors)
 *(SORT(.dtors.*))
 *(.dtors)
                0x9d000000                . = ALIGN (0x4)

.rodata         0x9d000000        0x0
 *(.gnu.linkonce.r.*)
 *(.rodata1)
                0x9d000000                . = ALIGN (0x4)

.sdata2         0x9fc00490        0x0
 *(.sdata2 .sdata2.* .gnu.linkonce.s2.*)
                0x9fc00490                . = ALIGN (0x4)

.sbss2          0x9fc00490        0x0
 *(.sbss2 .sbss2.* .gnu.linkonce.sb2.*)
                0x9fc00490                . = ALIGN (0x4)

.eh_frame_hdr
 *(.eh_frame_hdr)
                0x9fc00490                . = ALIGN (0x4)

.eh_frame
 *(.eh_frame)
                0x9fc00490                . = ALIGN (0x4)

.gcc_except_table
 *(.gcc_except_table .gcc_except_table.*)
                0x9fc00490                . = ALIGN (0x4)

.dbg_data       0xa0000000      0x200
                0xa0000000                . = (. + DEFINED (_DEBUGGER)?0x200:0x0)
 *fill*         0xa0000000      0x200 

.jcr            0xa0000200        0x0
 *(.jcr)
                0xa0000200                . = ALIGN (0x4)

.eh_frame
 *(.eh_frame)
                0xa0000200                . = ALIGN (0x4)

.gcc_except_table
 *(.gcc_except_table .gcc_except_table.*)
                0xa0000200                . = ALIGN (0x4)

.persist        0xa0000200        0x0
                0xa0000200                _persist_begin = .
 *(.persist .persist.*)
 *(.pbss .pbss.*)
                0xa0000200                . = ALIGN (0x4)
                0xa0000200                _persist_end = .

.data           0xa0000200        0x0
 *(.gnu.linkonce.d.*)
 *(.data1)
                0xa0000200                . = ALIGN (0x4)
                0xa0000200                . = .
                0xa00081f0                _gp = (ALIGN (0x10) + 0x7ff0)

.got            0xa0000200        0x0
 *(.got.plt)
 *(.got)
                0xa0000200                . = ALIGN (0x4)

.sdata          0xa0000200       0x14
                0xa0000200                _sdata_begin = .
 *(.sdata .sdata.* .gnu.linkonce.s.*)
 .sdata         0xa0000200        0x4 build/default/debug/_ext/1338673686/port.o
                0xa0000200                uxInterruptNesting
 .sdata         0xa0000204        0xc build/default/debug/_ext/1688732426/system_init.o
                0xa0000204                consAppIOInit0
                0xa000020c                sysConsoleObjects
 .sdata         0xa0000210        0x4 /home/john/MPLAB-X/XC32_Compiler/bin/bin/../../lib/gcc/pic32mx/4.8.3/../../../../pic32mx/lib/libpic32.a(xc32_uart.o)
                0xa0000210                __XC_UART
                0xa0000214                . = ALIGN (0x4)
                0xa0000214                _sdata_end = .

.lit8
 *(.lit8)

.lit4
 *(.lit4)
                0xa0000214                . = ALIGN (0x4)
                0xa0000214                _data_end = .
                0xa0000214                _bss_begin = .

.sbss           0xa0000214       0x78
                0xa0000214                _sbss_begin = .
 *(.dynsbss)
 *(.sbss .sbss.* .gnu.linkonce.sb.*)
 .sbss          0xa0000214       0x30 build/default/debug/_ext/1458882252/tasks.o
                0xa0000214                uxSchedulerSuspended
                0xa0000218                xNextTaskUnblockTime
                0xa000021c                uxTaskNumber
                0xa0000220                xNumOfOverflows
                0xa0000224                xYieldPending
                0xa0000228                uxPendedTicks
                0xa000022c                xSchedulerRunning
                0xa0000230                uxTopReadyPriority
                0xa0000234                xTickCount
                0xa0000238                uxCurrentNumberOfTasks
                0xa000023c                uxTasksDeleted
                0xa0000240                pxCurrentTCB
 .sbss          0xa0000244       0x10 build/default/debug/_ext/1458882252/timers.o
 .sbss          0xa0000254        0x8 build/default/debug/_ext/628943767/heap_1.o
 .sbss          0xa000025c        0x4 build/default/debug/_ext/1338673686/port.o
                0xa000025c                uxSavedTaskStackPointer
 .sbss          0xa0000260        0xc build/default/debug/_ext/1688732426/system_exceptions.o
 .sbss.APPIO_DEBUG
                0xa000026c        0xc /home/john/MPLAB-X/XC32_Compiler/bin/bin/../../lib/gcc/pic32mx/4.8.3/../../../../pic32mx/lib/libdebug.a(appio.o)
 *(.scommon)
 .scommon       0xa0000278        0x4 build/default/debug/_ext/1952159421/sys_debug.o
                0xa0000278                gblErrLvl
 .scommon       0xa000027c        0x8 build/default/debug/_ext/1921105363/sys_devcon.o
                0xa000027c                sysDevconObj
 .scommon       0xa0000284        0x8 build/default/debug/_ext/1458882252/tasks.o
                0xa0000284                pxDelayedTaskList
                0xa0000288                pxOverflowDelayedTaskList
                0xa000028c                _sbss_end = .
                0xa000028c                . = ALIGN (0x4)

.bss            0xa000028c      0x1b0
 *(.dynbss)
 *(COMMON)
 COMMON         0xa000028c       0x10 build/default/debug/_ext/1360937237/app.o
                0xa000028c                appData
 COMMON         0xa000029c       0xb8 build/default/debug/_ext/382300584/drv_usart.o
                0xa000029c                gDrvUSARTCommonDataObj
                0xa00002a8                gDrvUSARTClientObj
                0xa00002f4                gDrvUSARTObj
 COMMON         0xa0000354       0x10 build/default/debug/_ext/1952159421/sys_debug.o
                0xa0000354                sysDebugInstance
 COMMON         0xa0000364       0xc8 build/default/debug/_ext/1458882252/tasks.o
                0xa0000364                pxReadyTasksLists
                0xa00003c8                xPendingReadyList
                0xa00003dc                xTasksWaitingTermination
                0xa00003f0                xSuspendedTaskList
                0xa0000404                xDelayedTaskList2
                0xa0000418                xDelayedTaskList1
 COMMON         0xa000042c       0x10 build/default/debug/_ext/1688732426/system_init.o
                0xa000042c                sysObj
                0xa000043c                . = ALIGN ((. != 0x0)?0x4:0x1)
                0xa000043c                . = ALIGN (0x4)
                0xa000043c                _end = .
                0xa000043c                _bss_end = .
                0x00020000                _bmxdudba_address = 0x20000
                0x00020000                _bmxdupba_address = 0x20000

/DISCARD/
 *(.pdr)
 *(.rel.dyn)
 *(.note.GNU-stack)
 *(.note.GNU-stack)
 *(.gnu_debuglink)
 *(.gnu.lto_*)
 *(.discard)

.gptab.sdata
 *(.gptab.data)
 *(.gptab.sdata)

.gptab.sbss
 *(.gptab.bss)
 *(.gptab.sbss)

.mdebug.abi32   0xa000043c        0x0
 *(.mdebug.abi32)
 .mdebug.abi32  0xa000043c        0x0 /home/john/MPLAB-X/XC32_Compiler/bin/bin/../../lib/gcc/pic32mx/4.8.3/../../../../pic32mx/lib/software-debug-break.o
 .mdebug.abi32  0xa000043c        0x0 build/default/debug/_ext/1360937237/app_public.o
 .mdebug.abi32  0xa000043c        0x0 build/default/debug/_ext/1360937237/app.o
 .mdebug.abi32  0xa000043c        0x0 build/default/debug/_ext/1360937237/main.o
 .mdebug.abi32  0xa000043c        0x0 build/default/debug/_ext/382300584/drv_usart.o
 .mdebug.abi32  0xa000043c        0x0 build/default/debug/_ext/382300584/drv_usart_byte_model.o
 .mdebug.abi32  0xa000043c        0x0 build/default/debug/_ext/1964585049/osal_freertos.o
 .mdebug.abi32  0xa000043c        0x0 build/default/debug/_ext/207392127/sys_console.o
 .mdebug.abi32  0xa000043c        0x0 build/default/debug/_ext/207392127/sys_console_appio.o
 .mdebug.abi32  0xa000043c        0x0 build/default/debug/_ext/1952159421/sys_debug.o
 .mdebug.abi32  0xa000043c        0x0 build/default/debug/_ext/1921105363/sys_devcon.o
 .mdebug.abi32  0xa000043c        0x0 build/default/debug/_ext/1921105363/sys_devcon_pic32mx.o
 .mdebug.abi32  0xa000043c        0x0 build/default/debug/_ext/993332121/sys_int_pic32.o
 .mdebug.abi32  0xa000043c        0x0 build/default/debug/_ext/1458882252/croutine.o
 .mdebug.abi32  0xa000043c        0x0 build/default/debug/_ext/1458882252/list.o
 .mdebug.abi32  0xa000043c        0x0 build/default/debug/_ext/1458882252/queue.o
 .mdebug.abi32  0xa000043c        0x0 build/default/debug/_ext/1458882252/tasks.o
 .mdebug.abi32  0xa000043c        0x0 build/default/debug/_ext/1458882252/timers.o
 .mdebug.abi32  0xa000043c        0x0 build/default/debug/_ext/1458882252/event_groups.o
 .mdebug.abi32  0xa000043c        0x0 build/default/debug/_ext/628943767/heap_1.o
 .mdebug.abi32  0xa000043c        0x0 build/default/debug/_ext/1338673686/port.o
 .mdebug.abi32  0xa000043c        0x0 build/default/debug/_ext/639803181/sys_clk_static.o
 .mdebug.abi32  0xa000043c        0x0 build/default/debug/_ext/822048611/sys_ports_static.o
 .mdebug.abi32  0xa000043c        0x0 build/default/debug/_ext/1688732426/system_init.o
 .mdebug.abi32  0xa000043c        0x0 build/default/debug/_ext/1688732426/system_interrupt.o
 .mdebug.abi32  0xa000043c        0x0 build/default/debug/_ext/1688732426/system_exceptions.o
 .mdebug.abi32  0xa000043c        0x0 build/default/debug/_ext/1688732426/system_tasks.o
 .mdebug.abi32  0xa000043c        0x0 build/default/debug/_ext/1688732426/rtos_hooks.o
 .mdebug.abi32  0xa000043c        0x0 /home/john/MPLAB-X/XC32_Compiler/bin/bin/../../lib/gcc/pic32mx/4.8.3/../../../../pic32mx/lib/libpic32.a(default-bootstrap-exception-handler.o)
 .mdebug.abi32  0xa000043c        0x0 /home/john/MPLAB-X/XC32_Compiler/bin/bin/../../lib/gcc/pic32mx/4.8.3/../../../../pic32mx/lib/libpic32.a(default-on-reset.o)
 .mdebug.abi32  0xa000043c        0x0 /home/john/MPLAB-X/XC32_Compiler/bin/bin/../../lib/gcc/pic32mx/4.8.3/../../../../pic32mx/lib/libpic32.a(default-on-bootstrap.o)
 .mdebug.abi32  0xa000043c        0x0 /home/john/MPLAB-X/XC32_Compiler/bin/bin/../../lib/gcc/pic32mx/4.8.3/../../../../pic32mx/lib/libpic32.a(defaultinterrupt.o)
 .mdebug.abi32  0xa000043c        0x0 /home/john/MPLAB-X/XC32_Compiler/bin/bin/../../lib/gcc/pic32mx/4.8.3/../../../../pic32mx/lib/libdebug.a(appio.o)
 .mdebug.abi32  0xa000043c        0x0 /home/john/MPLAB-X/XC32_Compiler/bin/bin/../../lib/gcc/pic32mx/4.8.3/../../../../pic32mx/lib/libpic32.a(xc32_uart.o)
 .mdebug.abi32  0xa000043c        0x0 /home/john/MPLAB-X/XC32_Compiler/bin/bin/../../lib/gcc/pic32mx/4.8.3/../../../../pic32mx/lib/libc.a(_iob.o)
 .mdebug.abi32  0xa000043c        0x0 /home/john/MPLAB-X/XC32_Compiler/bin/bin/../../lib/gcc/pic32mx/4.8.3/../../../../pic32mx/lib/libc.a(setbuf.o)
 .mdebug.abi32  0xa000043c        0x0 /home/john/MPLAB-X/XC32_Compiler/bin/bin/../../lib/gcc/pic32mx/4.8.3/../../../../pic32mx/lib/libc.a(printf_s.eo)
 .mdebug.abi32  0xa000043c        0x0 /home/john/MPLAB-X/XC32_Compiler/bin/bin/../../lib/gcc/pic32mx/4.8.3/../../../../pic32mx/lib/libc.a(scanf_s.eo)
 .mdebug.abi32  0xa000043c        0x0 /home/john/MPLAB-X/XC32_Compiler/bin/bin/../../lib/gcc/pic32mx/4.8.3/../../../../pic32mx/lib/libc.a(vsnprintf.o)
 .mdebug.abi32  0xa000043c        0x0 /home/john/MPLAB-X/XC32_Compiler/bin/bin/../../lib/gcc/pic32mx/4.8.3/../../../../pic32mx/lib/libc.a(buf.o)
 .mdebug.abi32  0xa000043c        0x0 /home/john/MPLAB-X/XC32_Compiler/bin/bin/../../lib/gcc/pic32mx/4.8.3/../../../../pic32mx/lib/libc.a(errno.o)
 .mdebug.abi32  0xa000043c        0x0 /home/john/MPLAB-X/XC32_Compiler/bin/bin/../../lib/gcc/pic32mx/4.8.3/../../../../pic32mx/lib/libc.a(doprnt_s.eo)
 .mdebug.abi32  0xa000043c        0x0 /home/john/MPLAB-X/XC32_Compiler/bin/bin/../../lib/gcc/pic32mx/4.8.3/../../../../pic32mx/lib/libc.a(doprnt.o)
 .mdebug.abi32  0xa000043c        0x0 /home/john/MPLAB-X/XC32_Compiler/bin/bin/../../lib/gcc/pic32mx/4.8.3/../../../../pic32mx/lib/libc.a(doscan_s.eo)
 .mdebug.abi32  0xa000043c        0x0 /home/john/MPLAB-X/XC32_Compiler/bin/bin/../../lib/gcc/pic32mx/4.8.3/../../../../pic32mx/lib/libc.a(fgetc.o)
 .mdebug.abi32  0xa000043c        0x0 /home/john/MPLAB-X/XC32_Compiler/bin/bin/../../lib/gcc/pic32mx/4.8.3/../../../../pic32mx/lib/libc.a(_fputc_simple.o)
 .mdebug.abi32  0xa000043c        0x0 /home/john/MPLAB-X/XC32_Compiler/bin/bin/../../lib/gcc/pic32mx/4.8.3/../../../../pic32mx/lib/libc.a(atoi.o)
 .mdebug.abi32  0xa000043c        0x0 /home/john/MPLAB-X/XC32_Compiler/bin/bin/../../lib/gcc/pic32mx/4.8.3/../../../../pic32mx/lib/libc.a(ctype.o)
 .mdebug.abi32  0xa000043c        0x0 /home/john/MPLAB-X/XC32_Compiler/bin/bin/../../lib/gcc/pic32mx/4.8.3/../../../../pic32mx/lib/libc.a(ctypef.o)
 .mdebug.abi32  0xa000043c        0x0 /home/john/MPLAB-X/XC32_Compiler/bin/bin/../../lib/gcc/pic32mx/4.8.3/../../../../pic32mx/lib/libc.a(powersf.o)
 .mdebug.abi32  0xa000043c        0x0 /home/john/MPLAB-X/XC32_Compiler/bin/bin/../../lib/gcc/pic32mx/4.8.3/../../../../pic32mx/lib/libc.a(ungetc.o)
 .mdebug.abi32  0xa000043c        0x0 /home/john/MPLAB-X/XC32_Compiler/bin/bin/../../lib/gcc/pic32mx/4.8.3/../../../../pic32mx/lib/libc.a(filbuf.o)
 .mdebug.abi32  0xa000043c        0x0 /home/john/MPLAB-X/XC32_Compiler/bin/bin/../../lib/gcc/pic32mx/4.8.3/../../../../pic32mx/lib/libc.a(_flsbuf_simple.o)
 .mdebug.abi32  0xa000043c        0x0 /home/john/MPLAB-X/XC32_Compiler/bin/bin/../../lib/gcc/pic32mx/4.8.3/../../../../pic32mx/lib/libc.a(fflush.o)
 .mdebug.abi32  0xa000043c        0x0 /home/john/MPLAB-X/XC32_Compiler/bin/bin/../../lib/gcc/pic32mx/4.8.3/../../../../pic32mx/lib/libpic32.a(sbrk.o)
 .mdebug.abi32  0xa000043c        0x0 /home/john/MPLAB-X/XC32_Compiler/bin/bin/../../lib/gcc/pic32mx/4.8.3/../../../../pic32mx/lib/libpic32.a(read.o)
 .mdebug.abi32  0xa000043c        0x0 /home/john/MPLAB-X/XC32_Compiler/bin/bin/../../lib/gcc/pic32mx/4.8.3/../../../../pic32mx/lib/libpic32.a(write.o)
 .mdebug.abi32  0xa000043c        0x0 /home/john/MPLAB-X/XC32_Compiler/bin/bin/../../lib/gcc/pic32mx/4.8.3/../../../../pic32mx/lib/libe.a(_floatdisf.o)
 .mdebug.abi32  0xa000043c        0x0 /home/john/MPLAB-X/XC32_Compiler/bin/bin/../../lib/gcc/pic32mx/4.8.3/libgcc.a(_udivdi3.o)
 .mdebug.abi32  0xa000043c        0x0 /home/john/MPLAB-X/XC32_Compiler/bin/bin/../../lib/gcc/pic32mx/4.8.3/libgcc.a(_umoddi3.o)
 .mdebug.abi32  0xa000043c        0x0 /home/john/MPLAB-X/XC32_Compiler/bin/bin/../../lib/gcc/pic32mx/4.8.3/libgcc.a(floatunsisf.o)

.mdebug.abiN32
 *(.mdebug.abiN32)

.mdebug.abi64
 *(.mdebug.abi64)

.mdebug.abiO64
 *(.mdebug.abiO64)

.mdebug.eabi32
 *(.mdebug.eabi32)

.mdebug.eabi64
 *(.mdebug.eabi64)

.gcc_compiled_long32
 *(.gcc_compiled_long32)

.gcc_compiled_long64
 *(.gcc_compiled_long64)

.stab
 *(.stab)

.stabstr
 *(.stabstr)

.stab.excl
 *(.stab.excl)

.stab.exclstr
 *(.stab.exclstr)

.stab.index
 *(.stab.index)

.stab.indexstr
 *(.stab.indexstr)

.comment        0x00000000      0x20c
 *(.comment)
 .comment       0x00000000       0x3c /home/john/MPLAB-X/XC32_Compiler/bin/bin/../../lib/gcc/pic32mx/4.8.3/../../../../pic32mx/lib/software-debug-break.o
                                 0x3d (size before relaxing)
 .comment       0x00000000       0x3d build/default/debug/_ext/1360937237/app_public.o
 .comment       0x00000000       0x3d build/default/debug/_ext/1360937237/app.o
 .comment       0x00000000       0x3d build/default/debug/_ext/1360937237/main.o
 .comment       0x00000000       0x3d build/default/debug/_ext/382300584/drv_usart.o
 .comment       0x00000000       0x3d build/default/debug/_ext/382300584/drv_usart_byte_model.o
 .comment       0x00000000       0x3d build/default/debug/_ext/1964585049/osal_freertos.o
 .comment       0x00000000       0x3d build/default/debug/_ext/207392127/sys_console.o
 .comment       0x00000000       0x3d build/default/debug/_ext/207392127/sys_console_appio.o
 .comment       0x00000000       0x3d build/default/debug/_ext/1952159421/sys_debug.o
 .comment       0x00000000       0x3d build/default/debug/_ext/1921105363/sys_devcon.o
 .comment       0x00000000       0x3d build/default/debug/_ext/1921105363/sys_devcon_pic32mx.o
 .comment       0x00000000       0x3d build/default/debug/_ext/993332121/sys_int_pic32.o
 .comment       0x00000000       0x3d build/default/debug/_ext/1458882252/croutine.o
 .comment       0x00000000       0x3d build/default/debug/_ext/1458882252/list.o
 .comment       0x00000000       0x3d build/default/debug/_ext/1458882252/queue.o
 .comment       0x00000000       0x3d build/default/debug/_ext/1458882252/tasks.o
 .comment       0x00000000       0x3d build/default/debug/_ext/1458882252/timers.o
 .comment       0x00000000       0x3d build/default/debug/_ext/1458882252/event_groups.o
 .comment       0x00000000       0x3d build/default/debug/_ext/628943767/heap_1.o
 .comment       0x00000000       0x3d build/default/debug/_ext/1338673686/port.o
 .comment       0x00000000       0x3d build/default/debug/_ext/639803181/sys_clk_static.o
 .comment       0x00000000       0x3d build/default/debug/_ext/822048611/sys_ports_static.o
 .comment       0x00000000       0x3d build/default/debug/_ext/1688732426/system_init.o
 .comment       0x00000000       0x3d build/default/debug/_ext/1688732426/system_interrupt.o
 .comment       0x00000000       0x3d build/default/debug/_ext/1688732426/system_exceptions.o
 .comment       0x00000000       0x3d build/default/debug/_ext/1688732426/system_tasks.o
 .comment       0x00000000       0x3d build/default/debug/_ext/1688732426/rtos_hooks.o
 .comment       0x0000003c       0x18 /home/john/MPLAB-X/XC32_Compiler/bin/bin/../../lib/gcc/pic32mx/4.8.3/../../../../pic32mx/lib/libpic32.a(memset.o)
                                 0x19 (size before relaxing)
 .comment       0x00000054       0x19 /home/john/MPLAB-X/XC32_Compiler/bin/bin/../../lib/gcc/pic32mx/4.8.3/../../../../pic32mx/lib/libpic32.a(strcpy.o)
                                 0x1a (size before relaxing)
 .comment       0x0000006d       0x19 /home/john/MPLAB-X/XC32_Compiler/bin/bin/../../lib/gcc/pic32mx/4.8.3/../../../../pic32mx/lib/libpic32.a(strlen.o)
                                 0x1a (size before relaxing)
 .comment       0x00000000       0x3d /home/john/MPLAB-X/XC32_Compiler/bin/bin/../../lib/gcc/pic32mx/4.8.3/../../../../pic32mx/lib/libpic32.a(default-bootstrap-exception-handler.o)
 .comment       0x00000000       0x3d /home/john/MPLAB-X/XC32_Compiler/bin/bin/../../lib/gcc/pic32mx/4.8.3/../../../../pic32mx/lib/libpic32.a(default-on-reset.o)
 .comment       0x00000000       0x3d /home/john/MPLAB-X/XC32_Compiler/bin/bin/../../lib/gcc/pic32mx/4.8.3/../../../../pic32mx/lib/libpic32.a(default-on-bootstrap.o)
 .comment       0x00000000       0x3d /home/john/MPLAB-X/XC32_Compiler/bin/bin/../../lib/gcc/pic32mx/4.8.3/../../../../pic32mx/lib/libpic32.a(defaultinterrupt.o)
 .comment       0x00000000       0x3d /home/john/MPLAB-X/XC32_Compiler/bin/bin/../../lib/gcc/pic32mx/4.8.3/../../../../pic32mx/lib/libdebug.a(appio.o)
 .comment       0x00000000       0x3d /home/john/MPLAB-X/XC32_Compiler/bin/bin/../../lib/gcc/pic32mx/4.8.3/../../../../pic32mx/lib/libpic32.a(xc32_uart.o)
 .comment       0x00000000       0x3d /home/john/MPLAB-X/XC32_Compiler/bin/bin/../../lib/gcc/pic32mx/4.8.3/../../../../pic32mx/lib/libc.a(_iob.o)
 .comment       0x00000000       0x3d /home/john/MPLAB-X/XC32_Compiler/bin/bin/../../lib/gcc/pic32mx/4.8.3/../../../../pic32mx/lib/libc.a(setbuf.o)
 .comment       0x00000000       0x3d /home/john/MPLAB-X/XC32_Compiler/bin/bin/../../lib/gcc/pic32mx/4.8.3/../../../../pic32mx/lib/libc.a(printf_s.eo)
 .comment       0x00000000       0x3d /home/john/MPLAB-X/XC32_Compiler/bin/bin/../../lib/gcc/pic32mx/4.8.3/../../../../pic32mx/lib/libc.a(scanf_s.eo)
 .comment       0x00000000       0x3d /home/john/MPLAB-X/XC32_Compiler/bin/bin/../../lib/gcc/pic32mx/4.8.3/../../../../pic32mx/lib/libc.a(vsnprintf.o)
 .comment       0x00000000       0x3d /home/john/MPLAB-X/XC32_Compiler/bin/bin/../../lib/gcc/pic32mx/4.8.3/../../../../pic32mx/lib/libc.a(buf.o)
 .comment       0x00000000       0x3d /home/john/MPLAB-X/XC32_Compiler/bin/bin/../../lib/gcc/pic32mx/4.8.3/../../../../pic32mx/lib/libc.a(errno.o)
 .comment       0x00000000       0x3d /home/john/MPLAB-X/XC32_Compiler/bin/bin/../../lib/gcc/pic32mx/4.8.3/../../../../pic32mx/lib/libc.a(doprnt_s.eo)
 .comment       0x00000000       0x3d /home/john/MPLAB-X/XC32_Compiler/bin/bin/../../lib/gcc/pic32mx/4.8.3/../../../../pic32mx/lib/libc.a(doprnt.o)
 .comment       0x00000000       0x3d /home/john/MPLAB-X/XC32_Compiler/bin/bin/../../lib/gcc/pic32mx/4.8.3/../../../../pic32mx/lib/libc.a(doscan_s.eo)
 .comment       0x00000000       0x3d /home/john/MPLAB-X/XC32_Compiler/bin/bin/../../lib/gcc/pic32mx/4.8.3/../../../../pic32mx/lib/libc.a(fgetc.o)
 .comment       0x00000000       0x3d /home/john/MPLAB-X/XC32_Compiler/bin/bin/../../lib/gcc/pic32mx/4.8.3/../../../../pic32mx/lib/libc.a(_fputc_simple.o)
 .comment       0x00000000       0x3d /home/john/MPLAB-X/XC32_Compiler/bin/bin/../../lib/gcc/pic32mx/4.8.3/../../../../pic32mx/lib/libc.a(atoi.o)
 .comment       0x00000086       0x4e /home/john/MPLAB-X/XC32_Compiler/bin/bin/../../lib/gcc/pic32mx/4.8.3/../../../../pic32mx/lib/libc.a(ctype.o)
                                 0x8b (size before relaxing)
 .comment       0x000000d4       0x4f /home/john/MPLAB-X/XC32_Compiler/bin/bin/../../lib/gcc/pic32mx/4.8.3/../../../../pic32mx/lib/libc.a(ctypef.o)
                                 0x8c (size before relaxing)
 .comment       0x00000000       0x3d /home/john/MPLAB-X/XC32_Compiler/bin/bin/../../lib/gcc/pic32mx/4.8.3/../../../../pic32mx/lib/libc.a(powersf.o)
 .comment       0x00000000       0x3d /home/john/MPLAB-X/XC32_Compiler/bin/bin/../../lib/gcc/pic32mx/4.8.3/../../../../pic32mx/lib/libc.a(ungetc.o)
 .comment       0x00000000       0x3d /home/john/MPLAB-X/XC32_Compiler/bin/bin/../../lib/gcc/pic32mx/4.8.3/../../../../pic32mx/lib/libc.a(filbuf.o)
 .comment       0x00000000       0x3d /home/john/MPLAB-X/XC32_Compiler/bin/bin/../../lib/gcc/pic32mx/4.8.3/../../../../pic32mx/lib/libc.a(_flsbuf_simple.o)
 .comment       0x00000000       0x3d /home/john/MPLAB-X/XC32_Compiler/bin/bin/../../lib/gcc/pic32mx/4.8.3/../../../../pic32mx/lib/libc.a(fflush.o)
 .comment       0x00000123       0x4b /home/john/MPLAB-X/XC32_Compiler/bin/bin/../../lib/gcc/pic32mx/4.8.3/../../../../pic32mx/lib/libpic32.a(sbrk.o)
                                 0x88 (size before relaxing)
 .comment       0x00000000       0x3d /home/john/MPLAB-X/XC32_Compiler/bin/bin/../../lib/gcc/pic32mx/4.8.3/../../../../pic32mx/lib/libpic32.a(read.o)
 .comment       0x00000000       0x3d /home/john/MPLAB-X/XC32_Compiler/bin/bin/../../lib/gcc/pic32mx/4.8.3/../../../../pic32mx/lib/libpic32.a(write.o)
 .comment       0x0000016e       0x9e /home/john/MPLAB-X/XC32_Compiler/bin/bin/../../lib/gcc/pic32mx/4.8.3/../../../../pic32mx/lib/libe.a(_floatdisf.o)
                                 0xdb (size before relaxing)
 .comment       0x00000000       0x3d /home/john/MPLAB-X/XC32_Compiler/bin/bin/../../lib/gcc/pic32mx/4.8.3/libgcc.a(_udivdi3.o)
 .comment       0x00000000       0x3d /home/john/MPLAB-X/XC32_Compiler/bin/bin/../../lib/gcc/pic32mx/4.8.3/libgcc.a(_umoddi3.o)
 .comment       0x00000000       0x3d /home/john/MPLAB-X/XC32_Compiler/bin/bin/../../lib/gcc/pic32mx/4.8.3/libgcc.a(floatunsisf.o)

.debug
 *(.debug)

.line
 *(.line)

.debug_srcinfo
 *(.debug_srcinfo)

.debug_sfnames
 *(.debug_sfnames)

.debug_aranges  0x00000000     0x1198
 *(.debug_aranges)
 .debug_aranges
                0x00000000       0x20 /home/john/MPLAB-X/XC32_Compiler/bin/bin/../../lib/gcc/pic32mx/4.8.3/../../../../pic32mx/lib/software-debug-break.o
 .debug_aranges
                0x00000020       0x40 build/default/debug/_ext/1360937237/app_public.o
 .debug_aranges
                0x00000060       0x48 build/default/debug/_ext/1360937237/app.o
 .debug_aranges
                0x000000a8       0x38 build/default/debug/_ext/1360937237/main.o
 .debug_aranges
                0x000000e0       0xf0 build/default/debug/_ext/382300584/drv_usart.o
 .debug_aranges
                0x000001d0       0x60 build/default/debug/_ext/382300584/drv_usart_byte_model.o
 .debug_aranges
                0x00000230       0xa0 build/default/debug/_ext/1964585049/osal_freertos.o
 .debug_aranges
                0x000002d0       0x60 build/default/debug/_ext/207392127/sys_console.o
 .debug_aranges
                0x00000330       0x70 build/default/debug/_ext/207392127/sys_console_appio.o
 .debug_aranges
                0x000003a0       0x78 build/default/debug/_ext/1952159421/sys_debug.o
 .debug_aranges
                0x00000418       0x90 build/default/debug/_ext/1921105363/sys_devcon.o
 .debug_aranges
                0x000004a8       0x38 build/default/debug/_ext/1921105363/sys_devcon_pic32mx.o
 .debug_aranges
                0x000004e0       0x60 build/default/debug/_ext/993332121/sys_int_pic32.o
 .debug_aranges
                0x00000540       0x30 build/default/debug/_ext/1458882252/croutine.o
 .debug_aranges
                0x00000570       0x58 build/default/debug/_ext/1458882252/list.o
 .debug_aranges
                0x000005c8       0xd0 build/default/debug/_ext/1458882252/queue.o
 .debug_aranges
                0x00000698      0x1c0 build/default/debug/_ext/1458882252/tasks.o
 .debug_aranges
                0x00000858       0x88 build/default/debug/_ext/1458882252/timers.o
 .debug_aranges
                0x000008e0       0x78 build/default/debug/_ext/1458882252/event_groups.o
 .debug_aranges
                0x00000958       0x50 build/default/debug/_ext/628943767/heap_1.o
 .debug_aranges
                0x000009a8       0x70 build/default/debug/_ext/1338673686/port.o
 .debug_aranges
                0x00000a18       0x20 build/default/debug/_ext/1338673686/port_asm.o
 .debug_aranges
                0x00000a38       0x68 build/default/debug/_ext/639803181/sys_clk_static.o
 .debug_aranges
                0x00000aa0      0x120 build/default/debug/_ext/822048611/sys_ports_static.o
 .debug_aranges
                0x00000bc0       0x38 build/default/debug/_ext/1688732426/system_init.o
 .debug_aranges
                0x00000bf8       0x38 build/default/debug/_ext/1688732426/system_interrupt.o
 .debug_aranges
                0x00000c30       0x38 build/default/debug/_ext/1688732426/system_exceptions.o
 .debug_aranges
                0x00000c68       0x48 build/default/debug/_ext/1688732426/system_tasks.o
 .debug_aranges
                0x00000cb0       0x28 build/default/debug/_ext/1688732426/system_interrupt_a.o
 .debug_aranges
                0x00000cd8       0x40 build/default/debug/_ext/1688732426/rtos_hooks.o
 .debug_aranges
                0x00000d18       0x20 /home/john/MPLAB-X/XC32_Compiler/bin/bin/../../lib/gcc/pic32mx/4.8.3/../../../../pic32mx/lib/libpic32.a(default-bootstrap-exception-handler.o)
 .debug_aranges
                0x00000d38       0x20 /home/john/MPLAB-X/XC32_Compiler/bin/bin/../../lib/gcc/pic32mx/4.8.3/../../../../pic32mx/lib/libpic32.a(default-on-reset.o)
 .debug_aranges
                0x00000d58       0x20 /home/john/MPLAB-X/XC32_Compiler/bin/bin/../../lib/gcc/pic32mx/4.8.3/../../../../pic32mx/lib/libpic32.a(default-on-bootstrap.o)
 .debug_aranges
                0x00000d78       0x20 /home/john/MPLAB-X/XC32_Compiler/bin/bin/../../lib/gcc/pic32mx/4.8.3/../../../../pic32mx/lib/libpic32.a(defaultinterrupt.o)
 .debug_aranges
                0x00000d98       0x50 /home/john/MPLAB-X/XC32_Compiler/bin/bin/../../lib/gcc/pic32mx/4.8.3/../../../../pic32mx/lib/libdebug.a(appio.o)
 .debug_aranges
                0x00000de8       0x28 /home/john/MPLAB-X/XC32_Compiler/bin/bin/../../lib/gcc/pic32mx/4.8.3/../../../../pic32mx/lib/libc.a(setbuf.o)
 .debug_aranges
                0x00000e10       0x20 /home/john/MPLAB-X/XC32_Compiler/bin/bin/../../lib/gcc/pic32mx/4.8.3/../../../../pic32mx/lib/libc.a(printf_s.eo)
 .debug_aranges
                0x00000e30       0x20 /home/john/MPLAB-X/XC32_Compiler/bin/bin/../../lib/gcc/pic32mx/4.8.3/../../../../pic32mx/lib/libc.a(scanf_s.eo)
 .debug_aranges
                0x00000e50       0x20 /home/john/MPLAB-X/XC32_Compiler/bin/bin/../../lib/gcc/pic32mx/4.8.3/../../../../pic32mx/lib/libc.a(vsnprintf.o)
 .debug_aranges
                0x00000e70       0x28 /home/john/MPLAB-X/XC32_Compiler/bin/bin/../../lib/gcc/pic32mx/4.8.3/../../../../pic32mx/lib/libc.a(buf.o)
 .debug_aranges
                0x00000e98       0x20 /home/john/MPLAB-X/XC32_Compiler/bin/bin/../../lib/gcc/pic32mx/4.8.3/../../../../pic32mx/lib/libc.a(doprnt_s.eo)
 .debug_aranges
                0x00000eb8       0x30 /home/john/MPLAB-X/XC32_Compiler/bin/bin/../../lib/gcc/pic32mx/4.8.3/../../../../pic32mx/lib/libc.a(doprnt.o)
 .debug_aranges
                0x00000ee8       0x30 /home/john/MPLAB-X/XC32_Compiler/bin/bin/../../lib/gcc/pic32mx/4.8.3/../../../../pic32mx/lib/libc.a(doscan_s.eo)
 .debug_aranges
                0x00000f18       0x20 /home/john/MPLAB-X/XC32_Compiler/bin/bin/../../lib/gcc/pic32mx/4.8.3/../../../../pic32mx/lib/libc.a(fgetc.o)
 .debug_aranges
                0x00000f38       0x20 /home/john/MPLAB-X/XC32_Compiler/bin/bin/../../lib/gcc/pic32mx/4.8.3/../../../../pic32mx/lib/libc.a(_fputc_simple.o)
 .debug_aranges
                0x00000f58       0x20 /home/john/MPLAB-X/XC32_Compiler/bin/bin/../../lib/gcc/pic32mx/4.8.3/../../../../pic32mx/lib/libc.a(atoi.o)
 .debug_aranges
                0x00000f78       0xa0 /home/john/MPLAB-X/XC32_Compiler/bin/bin/../../lib/gcc/pic32mx/4.8.3/../../../../pic32mx/lib/libc.a(ctypef.o)
 .debug_aranges
                0x00001018       0x20 /home/john/MPLAB-X/XC32_Compiler/bin/bin/../../lib/gcc/pic32mx/4.8.3/../../../../pic32mx/lib/libc.a(ungetc.o)
 .debug_aranges
                0x00001038       0x20 /home/john/MPLAB-X/XC32_Compiler/bin/bin/../../lib/gcc/pic32mx/4.8.3/../../../../pic32mx/lib/libc.a(filbuf.o)
 .debug_aranges
                0x00001058       0x20 /home/john/MPLAB-X/XC32_Compiler/bin/bin/../../lib/gcc/pic32mx/4.8.3/../../../../pic32mx/lib/libc.a(_flsbuf_simple.o)
 .debug_aranges
                0x00001078       0x20 /home/john/MPLAB-X/XC32_Compiler/bin/bin/../../lib/gcc/pic32mx/4.8.3/../../../../pic32mx/lib/libc.a(fflush.o)
 .debug_aranges
                0x00001098       0x40 /home/john/MPLAB-X/XC32_Compiler/bin/bin/../../lib/gcc/pic32mx/4.8.3/../../../../pic32mx/lib/libpic32.a(sbrk.o)
 .debug_aranges
                0x000010d8       0x20 /home/john/MPLAB-X/XC32_Compiler/bin/bin/../../lib/gcc/pic32mx/4.8.3/../../../../pic32mx/lib/libpic32.a(read.o)
 .debug_aranges
                0x000010f8       0x20 /home/john/MPLAB-X/XC32_Compiler/bin/bin/../../lib/gcc/pic32mx/4.8.3/../../../../pic32mx/lib/libpic32.a(write.o)
 .debug_aranges
                0x00001118       0x20 /home/john/MPLAB-X/XC32_Compiler/bin/bin/../../lib/gcc/pic32mx/4.8.3/../../../../pic32mx/lib/libe.a(_floatdisf.o)
 .debug_aranges
                0x00001138       0x20 /home/john/MPLAB-X/XC32_Compiler/bin/bin/../../lib/gcc/pic32mx/4.8.3/libgcc.a(_udivdi3.o)
 .debug_aranges
                0x00001158       0x20 /home/john/MPLAB-X/XC32_Compiler/bin/bin/../../lib/gcc/pic32mx/4.8.3/libgcc.a(_umoddi3.o)
 .debug_aranges
                0x00001178       0x20 /home/john/MPLAB-X/XC32_Compiler/bin/bin/../../lib/gcc/pic32mx/4.8.3/libgcc.a(floatunsisf.o)

.debug_pubnames
 *(.debug_pubnames)

.debug_info     0x00000000    0x28b81
 *(.debug_info .gnu.linkonce.wi.*)
 .debug_info    0x00000000       0xe5 /home/john/MPLAB-X/XC32_Compiler/bin/bin/../../lib/gcc/pic32mx/4.8.3/../../../../pic32mx/lib/software-debug-break.o
 .debug_info    0x000000e5      0x3f1 build/default/debug/_ext/1360937237/app_public.o
 .debug_info    0x000004d6     0x11e5 build/default/debug/_ext/1360937237/app.o
 .debug_info    0x000016bb      0x8c5 build/default/debug/_ext/1360937237/main.o
 .debug_info    0x00001f80     0x79e3 build/default/debug/_ext/382300584/drv_usart.o
 .debug_info    0x00009963     0x2b54 build/default/debug/_ext/382300584/drv_usart_byte_model.o
 .debug_info    0x0000c4b7      0xbb3 build/default/debug/_ext/1964585049/osal_freertos.o
 .debug_info    0x0000d06a      0xcb8 build/default/debug/_ext/207392127/sys_console.o
 .debug_info    0x0000dd22      0xfd5 build/default/debug/_ext/207392127/sys_console_appio.o
 .debug_info    0x0000ecf7      0xa09 build/default/debug/_ext/1952159421/sys_debug.o
 .debug_info    0x0000f700     0x1287 build/default/debug/_ext/1921105363/sys_devcon.o
 .debug_info    0x00010987      0xe6b build/default/debug/_ext/1921105363/sys_devcon_pic32mx.o
 .debug_info    0x000117f2     0x16da build/default/debug/_ext/993332121/sys_int_pic32.o
 .debug_info    0x00012ecc      0x28d build/default/debug/_ext/1458882252/croutine.o
 .debug_info    0x00013159      0x58e build/default/debug/_ext/1458882252/list.o
 .debug_info    0x000136e7     0x1968 build/default/debug/_ext/1458882252/queue.o
 .debug_info    0x0001504f     0x2b56 build/default/debug/_ext/1458882252/tasks.o
 .debug_info    0x00017ba5     0x1614 build/default/debug/_ext/1458882252/timers.o
 .debug_info    0x000191b9      0xe69 build/default/debug/_ext/1458882252/event_groups.o
 .debug_info    0x0001a022      0x490 build/default/debug/_ext/628943767/heap_1.o
 .debug_info    0x0001a4b2     0x12c2 build/default/debug/_ext/1338673686/port.o
 .debug_info    0x0001b774      0x126 build/default/debug/_ext/1338673686/port_asm.o
 .debug_info    0x0001b89a     0x15bb build/default/debug/_ext/639803181/sys_clk_static.o
 .debug_info    0x0001ce55     0x4043 build/default/debug/_ext/822048611/sys_ports_static.o
 .debug_info    0x00020e98     0x2f3c build/default/debug/_ext/1688732426/system_init.o
 .debug_info    0x00023dd4      0x9e2 build/default/debug/_ext/1688732426/system_interrupt.o
 .debug_info    0x000247b6      0xbcd build/default/debug/_ext/1688732426/system_exceptions.o
 .debug_info    0x00025383      0xc72 build/default/debug/_ext/1688732426/system_tasks.o
 .debug_info    0x00025ff5       0xdb build/default/debug/_ext/1688732426/system_interrupt_a.o
 .debug_info    0x000260d0      0x342 build/default/debug/_ext/1688732426/rtos_hooks.o
 .debug_info    0x00026412       0xf5 /home/john/MPLAB-X/XC32_Compiler/bin/bin/../../lib/gcc/pic32mx/4.8.3/../../../../pic32mx/lib/libpic32.a(default-bootstrap-exception-handler.o)
 .debug_info    0x00026507       0xcf /home/john/MPLAB-X/XC32_Compiler/bin/bin/../../lib/gcc/pic32mx/4.8.3/../../../../pic32mx/lib/libpic32.a(default-on-reset.o)
 .debug_info    0x000265d6       0xd7 /home/john/MPLAB-X/XC32_Compiler/bin/bin/../../lib/gcc/pic32mx/4.8.3/../../../../pic32mx/lib/libpic32.a(default-on-bootstrap.o)
 .debug_info    0x000266ad       0xe9 /home/john/MPLAB-X/XC32_Compiler/bin/bin/../../lib/gcc/pic32mx/4.8.3/../../../../pic32mx/lib/libpic32.a(defaultinterrupt.o)
 .debug_info    0x00026796      0x16d /home/john/MPLAB-X/XC32_Compiler/bin/bin/../../lib/gcc/pic32mx/4.8.3/../../../../pic32mx/lib/libdebug.a(appio.o)
 .debug_info    0x00026903       0xdf /home/john/MPLAB-X/XC32_Compiler/bin/bin/../../lib/gcc/pic32mx/4.8.3/../../../../pic32mx/lib/libc.a(setbuf.o)
 .debug_info    0x000269e2       0xcb /home/john/MPLAB-X/XC32_Compiler/bin/bin/../../lib/gcc/pic32mx/4.8.3/../../../../pic32mx/lib/libc.a(printf_s.eo)
 .debug_info    0x00026aad       0xc9 /home/john/MPLAB-X/XC32_Compiler/bin/bin/../../lib/gcc/pic32mx/4.8.3/../../../../pic32mx/lib/libc.a(scanf_s.eo)
 .debug_info    0x00026b76       0xce /home/john/MPLAB-X/XC32_Compiler/bin/bin/../../lib/gcc/pic32mx/4.8.3/../../../../pic32mx/lib/libc.a(vsnprintf.o)
 .debug_info    0x00026c44       0xee /home/john/MPLAB-X/XC32_Compiler/bin/bin/../../lib/gcc/pic32mx/4.8.3/../../../../pic32mx/lib/libc.a(buf.o)
 .debug_info    0x00026d32       0xce /home/john/MPLAB-X/XC32_Compiler/bin/bin/../../lib/gcc/pic32mx/4.8.3/../../../../pic32mx/lib/libc.a(doprnt_s.eo)
 .debug_info    0x00026e00      0x102 /home/john/MPLAB-X/XC32_Compiler/bin/bin/../../lib/gcc/pic32mx/4.8.3/../../../../pic32mx/lib/libc.a(doprnt.o)
 .debug_info    0x00026f02       0xf5 /home/john/MPLAB-X/XC32_Compiler/bin/bin/../../lib/gcc/pic32mx/4.8.3/../../../../pic32mx/lib/libc.a(doscan_s.eo)
 .debug_info    0x00026ff7       0xc6 /home/john/MPLAB-X/XC32_Compiler/bin/bin/../../lib/gcc/pic32mx/4.8.3/../../../../pic32mx/lib/libc.a(fgetc.o)
 .debug_info    0x000270bd       0xc6 /home/john/MPLAB-X/XC32_Compiler/bin/bin/../../lib/gcc/pic32mx/4.8.3/../../../../pic32mx/lib/libc.a(_fputc_simple.o)
 .debug_info    0x00027183       0xc4 /home/john/MPLAB-X/XC32_Compiler/bin/bin/../../lib/gcc/pic32mx/4.8.3/../../../../pic32mx/lib/libc.a(atoi.o)
 .debug_info    0x00027247      0x23c /home/john/MPLAB-X/XC32_Compiler/bin/bin/../../lib/gcc/pic32mx/4.8.3/../../../../pic32mx/lib/libc.a(ctypef.o)
 .debug_info    0x00027483       0xc8 /home/john/MPLAB-X/XC32_Compiler/bin/bin/../../lib/gcc/pic32mx/4.8.3/../../../../pic32mx/lib/libc.a(ungetc.o)
 .debug_info    0x0002754b       0xc9 /home/john/MPLAB-X/XC32_Compiler/bin/bin/../../lib/gcc/pic32mx/4.8.3/../../../../pic32mx/lib/libc.a(filbuf.o)
 .debug_info    0x00027614       0xc9 /home/john/MPLAB-X/XC32_Compiler/bin/bin/../../lib/gcc/pic32mx/4.8.3/../../../../pic32mx/lib/libc.a(_flsbuf_simple.o)
 .debug_info    0x000276dd       0xc8 /home/john/MPLAB-X/XC32_Compiler/bin/bin/../../lib/gcc/pic32mx/4.8.3/../../../../pic32mx/lib/libc.a(fflush.o)
 .debug_info    0x000277a5      0x12c /home/john/MPLAB-X/XC32_Compiler/bin/bin/../../lib/gcc/pic32mx/4.8.3/../../../../pic32mx/lib/libpic32.a(sbrk.o)
 .debug_info    0x000278d1       0xbe /home/john/MPLAB-X/XC32_Compiler/bin/bin/../../lib/gcc/pic32mx/4.8.3/../../../../pic32mx/lib/libpic32.a(read.o)
 .debug_info    0x0002798f       0xc0 /home/john/MPLAB-X/XC32_Compiler/bin/bin/../../lib/gcc/pic32mx/4.8.3/../../../../pic32mx/lib/libpic32.a(write.o)
 .debug_info    0x00027a4f       0xde /home/john/MPLAB-X/XC32_Compiler/bin/bin/../../lib/gcc/pic32mx/4.8.3/../../../../pic32mx/lib/libe.a(_floatdisf.o)
 .debug_info    0x00027b2d      0x773 /home/john/MPLAB-X/XC32_Compiler/bin/bin/../../lib/gcc/pic32mx/4.8.3/libgcc.a(_udivdi3.o)
 .debug_info    0x000282a0      0x7b0 /home/john/MPLAB-X/XC32_Compiler/bin/bin/../../lib/gcc/pic32mx/4.8.3/libgcc.a(_umoddi3.o)
 .debug_info    0x00028a50      0x131 /home/john/MPLAB-X/XC32_Compiler/bin/bin/../../lib/gcc/pic32mx/4.8.3/libgcc.a(floatunsisf.o)

.debug_abbrev   0x00000000     0x4432
 *(.debug_abbrev)
 .debug_abbrev  0x00000000       0x28 /home/john/MPLAB-X/XC32_Compiler/bin/bin/../../lib/gcc/pic32mx/4.8.3/../../../../pic32mx/lib/software-debug-break.o
 .debug_abbrev  0x00000028      0x107 build/default/debug/_ext/1360937237/app_public.o
 .debug_abbrev  0x0000012f      0x232 build/default/debug/_ext/1360937237/app.o
 .debug_abbrev  0x00000361      0x100 build/default/debug/_ext/1360937237/main.o
 .debug_abbrev  0x00000461      0x4cd build/default/debug/_ext/382300584/drv_usart.o
 .debug_abbrev  0x0000092e      0x372 build/default/debug/_ext/382300584/drv_usart_byte_model.o
 .debug_abbrev  0x00000ca0      0x243 build/default/debug/_ext/1964585049/osal_freertos.o
 .debug_abbrev  0x00000ee3      0x25a build/default/debug/_ext/207392127/sys_console.o
 .debug_abbrev  0x0000113d      0x2f9 build/default/debug/_ext/207392127/sys_console_appio.o
 .debug_abbrev  0x00001436      0x29e build/default/debug/_ext/1952159421/sys_debug.o
 .debug_abbrev  0x000016d4      0x2a1 build/default/debug/_ext/1921105363/sys_devcon.o
 .debug_abbrev  0x00001975      0x1b9 build/default/debug/_ext/1921105363/sys_devcon_pic32mx.o
 .debug_abbrev  0x00001b2e      0x20d build/default/debug/_ext/993332121/sys_int_pic32.o
 .debug_abbrev  0x00001d3b       0x74 build/default/debug/_ext/1458882252/croutine.o
 .debug_abbrev  0x00001daf      0x10d build/default/debug/_ext/1458882252/list.o
 .debug_abbrev  0x00001ebc      0x325 build/default/debug/_ext/1458882252/queue.o
 .debug_abbrev  0x000021e1      0x326 build/default/debug/_ext/1458882252/tasks.o
 .debug_abbrev  0x00002507      0x3a2 build/default/debug/_ext/1458882252/timers.o
 .debug_abbrev  0x000028a9      0x2df build/default/debug/_ext/1458882252/event_groups.o
 .debug_abbrev  0x00002b88      0x162 build/default/debug/_ext/628943767/heap_1.o
 .debug_abbrev  0x00002cea      0x2eb build/default/debug/_ext/1338673686/port.o
 .debug_abbrev  0x00002fd5       0x14 build/default/debug/_ext/1338673686/port_asm.o
 .debug_abbrev  0x00002fe9      0x284 build/default/debug/_ext/639803181/sys_clk_static.o
 .debug_abbrev  0x0000326d      0x232 build/default/debug/_ext/822048611/sys_ports_static.o
 .debug_abbrev  0x0000349f      0x34e build/default/debug/_ext/1688732426/system_init.o
 .debug_abbrev  0x000037ed      0x118 build/default/debug/_ext/1688732426/system_interrupt.o
 .debug_abbrev  0x00003905      0x13e build/default/debug/_ext/1688732426/system_exceptions.o
 .debug_abbrev  0x00003a43      0x199 build/default/debug/_ext/1688732426/system_tasks.o
 .debug_abbrev  0x00003bdc       0x12 build/default/debug/_ext/1688732426/system_interrupt_a.o
 .debug_abbrev  0x00003bee       0xd4 build/default/debug/_ext/1688732426/rtos_hooks.o
 .debug_abbrev  0x00003cc2       0x28 /home/john/MPLAB-X/XC32_Compiler/bin/bin/../../lib/gcc/pic32mx/4.8.3/../../../../pic32mx/lib/libpic32.a(default-bootstrap-exception-handler.o)
 .debug_abbrev  0x00003cea       0x28 /home/john/MPLAB-X/XC32_Compiler/bin/bin/../../lib/gcc/pic32mx/4.8.3/../../../../pic32mx/lib/libpic32.a(default-on-reset.o)
 .debug_abbrev  0x00003d12       0x28 /home/john/MPLAB-X/XC32_Compiler/bin/bin/../../lib/gcc/pic32mx/4.8.3/../../../../pic32mx/lib/libpic32.a(default-on-bootstrap.o)
 .debug_abbrev  0x00003d3a       0x28 /home/john/MPLAB-X/XC32_Compiler/bin/bin/../../lib/gcc/pic32mx/4.8.3/../../../../pic32mx/lib/libpic32.a(defaultinterrupt.o)
 .debug_abbrev  0x00003d62       0x3e /home/john/MPLAB-X/XC32_Compiler/bin/bin/../../lib/gcc/pic32mx/4.8.3/../../../../pic32mx/lib/libdebug.a(appio.o)
 .debug_abbrev  0x00003da0       0x28 /home/john/MPLAB-X/XC32_Compiler/bin/bin/../../lib/gcc/pic32mx/4.8.3/../../../../pic32mx/lib/libc.a(setbuf.o)
 .debug_abbrev  0x00003dc8       0x28 /home/john/MPLAB-X/XC32_Compiler/bin/bin/../../lib/gcc/pic32mx/4.8.3/../../../../pic32mx/lib/libc.a(printf_s.eo)
 .debug_abbrev  0x00003df0       0x28 /home/john/MPLAB-X/XC32_Compiler/bin/bin/../../lib/gcc/pic32mx/4.8.3/../../../../pic32mx/lib/libc.a(scanf_s.eo)
 .debug_abbrev  0x00003e18       0x28 /home/john/MPLAB-X/XC32_Compiler/bin/bin/../../lib/gcc/pic32mx/4.8.3/../../../../pic32mx/lib/libc.a(vsnprintf.o)
 .debug_abbrev  0x00003e40       0x4f /home/john/MPLAB-X/XC32_Compiler/bin/bin/../../lib/gcc/pic32mx/4.8.3/../../../../pic32mx/lib/libc.a(buf.o)
 .debug_abbrev  0x00003e8f       0x28 /home/john/MPLAB-X/XC32_Compiler/bin/bin/../../lib/gcc/pic32mx/4.8.3/../../../../pic32mx/lib/libc.a(doprnt_s.eo)
 .debug_abbrev  0x00003eb7       0x45 /home/john/MPLAB-X/XC32_Compiler/bin/bin/../../lib/gcc/pic32mx/4.8.3/../../../../pic32mx/lib/libc.a(doprnt.o)
 .debug_abbrev  0x00003efc       0x3c /home/john/MPLAB-X/XC32_Compiler/bin/bin/../../lib/gcc/pic32mx/4.8.3/../../../../pic32mx/lib/libc.a(doscan_s.eo)
 .debug_abbrev  0x00003f38       0x28 /home/john/MPLAB-X/XC32_Compiler/bin/bin/../../lib/gcc/pic32mx/4.8.3/../../../../pic32mx/lib/libc.a(fgetc.o)
 .debug_abbrev  0x00003f60       0x28 /home/john/MPLAB-X/XC32_Compiler/bin/bin/../../lib/gcc/pic32mx/4.8.3/../../../../pic32mx/lib/libc.a(_fputc_simple.o)
 .debug_abbrev  0x00003f88       0x28 /home/john/MPLAB-X/XC32_Compiler/bin/bin/../../lib/gcc/pic32mx/4.8.3/../../../../pic32mx/lib/libc.a(atoi.o)
 .debug_abbrev  0x00003fb0       0x28 /home/john/MPLAB-X/XC32_Compiler/bin/bin/../../lib/gcc/pic32mx/4.8.3/../../../../pic32mx/lib/libc.a(ctypef.o)
 .debug_abbrev  0x00003fd8       0x28 /home/john/MPLAB-X/XC32_Compiler/bin/bin/../../lib/gcc/pic32mx/4.8.3/../../../../pic32mx/lib/libc.a(ungetc.o)
 .debug_abbrev  0x00004000       0x28 /home/john/MPLAB-X/XC32_Compiler/bin/bin/../../lib/gcc/pic32mx/4.8.3/../../../../pic32mx/lib/libc.a(filbuf.o)
 .debug_abbrev  0x00004028       0x28 /home/john/MPLAB-X/XC32_Compiler/bin/bin/../../lib/gcc/pic32mx/4.8.3/../../../../pic32mx/lib/libc.a(_flsbuf_simple.o)
 .debug_abbrev  0x00004050       0x28 /home/john/MPLAB-X/XC32_Compiler/bin/bin/../../lib/gcc/pic32mx/4.8.3/../../../../pic32mx/lib/libc.a(fflush.o)
 .debug_abbrev  0x00004078       0x54 /home/john/MPLAB-X/XC32_Compiler/bin/bin/../../lib/gcc/pic32mx/4.8.3/../../../../pic32mx/lib/libpic32.a(sbrk.o)
 .debug_abbrev  0x000040cc       0x28 /home/john/MPLAB-X/XC32_Compiler/bin/bin/../../lib/gcc/pic32mx/4.8.3/../../../../pic32mx/lib/libpic32.a(read.o)
 .debug_abbrev  0x000040f4       0x28 /home/john/MPLAB-X/XC32_Compiler/bin/bin/../../lib/gcc/pic32mx/4.8.3/../../../../pic32mx/lib/libpic32.a(write.o)
 .debug_abbrev  0x0000411c       0x35 /home/john/MPLAB-X/XC32_Compiler/bin/bin/../../lib/gcc/pic32mx/4.8.3/../../../../pic32mx/lib/libe.a(_floatdisf.o)
 .debug_abbrev  0x00004151      0x138 /home/john/MPLAB-X/XC32_Compiler/bin/bin/../../lib/gcc/pic32mx/4.8.3/libgcc.a(_udivdi3.o)
 .debug_abbrev  0x00004289      0x147 /home/john/MPLAB-X/XC32_Compiler/bin/bin/../../lib/gcc/pic32mx/4.8.3/libgcc.a(_umoddi3.o)
 .debug_abbrev  0x000043d0       0x62 /home/john/MPLAB-X/XC32_Compiler/bin/bin/../../lib/gcc/pic32mx/4.8.3/libgcc.a(floatunsisf.o)

.debug_line     0x00000000     0x9702
 *(.debug_line)
 .debug_line    0x00000000       0x9c /home/john/MPLAB-X/XC32_Compiler/bin/bin/../../lib/gcc/pic32mx/4.8.3/../../../../pic32mx/lib/software-debug-break.o
 .debug_line    0x0000009c      0x247 build/default/debug/_ext/1360937237/app_public.o
 .debug_line    0x000002e3      0x4e1 build/default/debug/_ext/1360937237/app.o
 .debug_line    0x000007c4      0x1bb build/default/debug/_ext/1360937237/main.o
 .debug_line    0x0000097f     0x1680 build/default/debug/_ext/382300584/drv_usart.o
 .debug_line    0x00001fff      0x7ea build/default/debug/_ext/382300584/drv_usart_byte_model.o
 .debug_line    0x000027e9      0x35e build/default/debug/_ext/1964585049/osal_freertos.o
 .debug_line    0x00002b47      0x322 build/default/debug/_ext/207392127/sys_console.o
 .debug_line    0x00002e69      0x399 build/default/debug/_ext/207392127/sys_console_appio.o
 .debug_line    0x00003202      0x35b build/default/debug/_ext/1952159421/sys_debug.o
 .debug_line    0x0000355d      0x6b2 build/default/debug/_ext/1921105363/sys_devcon.o
 .debug_line    0x00003c0f      0x53c build/default/debug/_ext/1921105363/sys_devcon_pic32mx.o
 .debug_line    0x0000414b      0x435 build/default/debug/_ext/993332121/sys_int_pic32.o
 .debug_line    0x00004580       0x8e build/default/debug/_ext/1458882252/croutine.o
 .debug_line    0x0000460e      0x26d build/default/debug/_ext/1458882252/list.o
 .debug_line    0x0000487b      0x522 build/default/debug/_ext/1458882252/queue.o
 .debug_line    0x00004d9d      0x945 build/default/debug/_ext/1458882252/tasks.o
 .debug_line    0x000056e2      0x417 build/default/debug/_ext/1458882252/timers.o
 .debug_line    0x00005af9      0x3af build/default/debug/_ext/1458882252/event_groups.o
 .debug_line    0x00005ea8      0x29b build/default/debug/_ext/628943767/heap_1.o
 .debug_line    0x00006143      0x2b1 build/default/debug/_ext/1338673686/port.o
 .debug_line    0x000063f4      0x12c build/default/debug/_ext/1338673686/port_asm.o
 .debug_line    0x00006520      0x4f2 build/default/debug/_ext/639803181/sys_clk_static.o
 .debug_line    0x00006a12      0x8db build/default/debug/_ext/822048611/sys_ports_static.o
 .debug_line    0x000072ed      0x815 build/default/debug/_ext/1688732426/system_init.o
 .debug_line    0x00007b02      0x28b build/default/debug/_ext/1688732426/system_interrupt.o
 .debug_line    0x00007d8d      0x290 build/default/debug/_ext/1688732426/system_exceptions.o
 .debug_line    0x0000801d      0x45a build/default/debug/_ext/1688732426/system_tasks.o
 .debug_line    0x00008477       0x7c build/default/debug/_ext/1688732426/system_interrupt_a.o
 .debug_line    0x000084f3      0x1f4 build/default/debug/_ext/1688732426/rtos_hooks.o
 .debug_line    0x000086e7       0xa9 /home/john/MPLAB-X/XC32_Compiler/bin/bin/../../lib/gcc/pic32mx/4.8.3/../../../../pic32mx/lib/libpic32.a(default-bootstrap-exception-handler.o)
 .debug_line    0x00008790       0x96 /home/john/MPLAB-X/XC32_Compiler/bin/bin/../../lib/gcc/pic32mx/4.8.3/../../../../pic32mx/lib/libpic32.a(default-on-reset.o)
 .debug_line    0x00008826       0x9a /home/john/MPLAB-X/XC32_Compiler/bin/bin/../../lib/gcc/pic32mx/4.8.3/../../../../pic32mx/lib/libpic32.a(default-on-bootstrap.o)
 .debug_line    0x000088c0       0xa8 /home/john/MPLAB-X/XC32_Compiler/bin/bin/../../lib/gcc/pic32mx/4.8.3/../../../../pic32mx/lib/libpic32.a(defaultinterrupt.o)
 .debug_line    0x00008968       0x8f /home/john/MPLAB-X/XC32_Compiler/bin/bin/../../lib/gcc/pic32mx/4.8.3/../../../../pic32mx/lib/libdebug.a(appio.o)
 .debug_line    0x000089f7        0x0 /home/john/MPLAB-X/XC32_Compiler/bin/bin/../../lib/gcc/pic32mx/4.8.3/../../../../pic32mx/lib/libpic32.a(xc32_uart.o)
 .debug_line    0x000089f7        0x0 /home/john/MPLAB-X/XC32_Compiler/bin/bin/../../lib/gcc/pic32mx/4.8.3/../../../../pic32mx/lib/libc.a(_iob.o)
 .debug_line    0x000089f7       0x82 /home/john/MPLAB-X/XC32_Compiler/bin/bin/../../lib/gcc/pic32mx/4.8.3/../../../../pic32mx/lib/libc.a(setbuf.o)
 .debug_line    0x00008a79       0x82 /home/john/MPLAB-X/XC32_Compiler/bin/bin/../../lib/gcc/pic32mx/4.8.3/../../../../pic32mx/lib/libc.a(printf_s.eo)
 .debug_line    0x00008afb       0x81 /home/john/MPLAB-X/XC32_Compiler/bin/bin/../../lib/gcc/pic32mx/4.8.3/../../../../pic32mx/lib/libc.a(scanf_s.eo)
 .debug_line    0x00008b7c       0x85 /home/john/MPLAB-X/XC32_Compiler/bin/bin/../../lib/gcc/pic32mx/4.8.3/../../../../pic32mx/lib/libc.a(vsnprintf.o)
 .debug_line    0x00008c01       0x7f /home/john/MPLAB-X/XC32_Compiler/bin/bin/../../lib/gcc/pic32mx/4.8.3/../../../../pic32mx/lib/libc.a(buf.o)
 .debug_line    0x00008c80        0x0 /home/john/MPLAB-X/XC32_Compiler/bin/bin/../../lib/gcc/pic32mx/4.8.3/../../../../pic32mx/lib/libc.a(errno.o)
 .debug_line    0x00008c80       0x82 /home/john/MPLAB-X/XC32_Compiler/bin/bin/../../lib/gcc/pic32mx/4.8.3/../../../../pic32mx/lib/libc.a(doprnt_s.eo)
 .debug_line    0x00008d02       0x82 /home/john/MPLAB-X/XC32_Compiler/bin/bin/../../lib/gcc/pic32mx/4.8.3/../../../../pic32mx/lib/libc.a(doprnt.o)
 .debug_line    0x00008d84       0x82 /home/john/MPLAB-X/XC32_Compiler/bin/bin/../../lib/gcc/pic32mx/4.8.3/../../../../pic32mx/lib/libc.a(doscan_s.eo)
 .debug_line    0x00008e06       0x81 /home/john/MPLAB-X/XC32_Compiler/bin/bin/../../lib/gcc/pic32mx/4.8.3/../../../../pic32mx/lib/libc.a(fgetc.o)
 .debug_line    0x00008e87       0x81 /home/john/MPLAB-X/XC32_Compiler/bin/bin/../../lib/gcc/pic32mx/4.8.3/../../../../pic32mx/lib/libc.a(_fputc_simple.o)
 .debug_line    0x00008f08       0x80 /home/john/MPLAB-X/XC32_Compiler/bin/bin/../../lib/gcc/pic32mx/4.8.3/../../../../pic32mx/lib/libc.a(atoi.o)
 .debug_line    0x00008f88        0x0 /home/john/MPLAB-X/XC32_Compiler/bin/bin/../../lib/gcc/pic32mx/4.8.3/../../../../pic32mx/lib/libc.a(ctype.o)
 .debug_line    0x00008f88       0x82 /home/john/MPLAB-X/XC32_Compiler/bin/bin/../../lib/gcc/pic32mx/4.8.3/../../../../pic32mx/lib/libc.a(ctypef.o)
 .debug_line    0x0000900a        0x0 /home/john/MPLAB-X/XC32_Compiler/bin/bin/../../lib/gcc/pic32mx/4.8.3/../../../../pic32mx/lib/libc.a(powersf.o)
 .debug_line    0x0000900a       0x82 /home/john/MPLAB-X/XC32_Compiler/bin/bin/../../lib/gcc/pic32mx/4.8.3/../../../../pic32mx/lib/libc.a(ungetc.o)
 .debug_line    0x0000908c       0x82 /home/john/MPLAB-X/XC32_Compiler/bin/bin/../../lib/gcc/pic32mx/4.8.3/../../../../pic32mx/lib/libc.a(filbuf.o)
 .debug_line    0x0000910e       0x82 /home/john/MPLAB-X/XC32_Compiler/bin/bin/../../lib/gcc/pic32mx/4.8.3/../../../../pic32mx/lib/libc.a(_flsbuf_simple.o)
 .debug_line    0x00009190       0x82 /home/john/MPLAB-X/XC32_Compiler/bin/bin/../../lib/gcc/pic32mx/4.8.3/../../../../pic32mx/lib/libc.a(fflush.o)
 .debug_line    0x00009212       0x8a /home/john/MPLAB-X/XC32_Compiler/bin/bin/../../lib/gcc/pic32mx/4.8.3/../../../../pic32mx/lib/libpic32.a(sbrk.o)
 .debug_line    0x0000929c       0x8a /home/john/MPLAB-X/XC32_Compiler/bin/bin/../../lib/gcc/pic32mx/4.8.3/../../../../pic32mx/lib/libpic32.a(read.o)
 .debug_line    0x00009326       0x8b /home/john/MPLAB-X/XC32_Compiler/bin/bin/../../lib/gcc/pic32mx/4.8.3/../../../../pic32mx/lib/libpic32.a(write.o)
 .debug_line    0x000093b1       0xa5 /home/john/MPLAB-X/XC32_Compiler/bin/bin/../../lib/gcc/pic32mx/4.8.3/../../../../pic32mx/lib/libe.a(_floatdisf.o)
 .debug_line    0x00009456       0xff /home/john/MPLAB-X/XC32_Compiler/bin/bin/../../lib/gcc/pic32mx/4.8.3/libgcc.a(_udivdi3.o)
 .debug_line    0x00009555      0x111 /home/john/MPLAB-X/XC32_Compiler/bin/bin/../../lib/gcc/pic32mx/4.8.3/libgcc.a(_umoddi3.o)
 .debug_line    0x00009666       0x9c /home/john/MPLAB-X/XC32_Compiler/bin/bin/../../lib/gcc/pic32mx/4.8.3/libgcc.a(floatunsisf.o)

.debug_frame    0x00000000     0x23ac
 *(.debug_frame)
 .debug_frame   0x00000000       0x20 /home/john/MPLAB-X/XC32_Compiler/bin/bin/../../lib/gcc/pic32mx/4.8.3/../../../../pic32mx/lib/software-debug-break.o
 .debug_frame   0x00000020       0x70 build/default/debug/_ext/1360937237/app_public.o
 .debug_frame   0x00000090       0x78 build/default/debug/_ext/1360937237/app.o
 .debug_frame   0x00000108       0x58 build/default/debug/_ext/1360937237/main.o
 .debug_frame   0x00000160      0x2c4 build/default/debug/_ext/382300584/drv_usart.o
 .debug_frame   0x00000424       0xd8 build/default/debug/_ext/382300584/drv_usart_byte_model.o
 .debug_frame   0x000004fc      0x180 build/default/debug/_ext/1964585049/osal_freertos.o
 .debug_frame   0x0000067c      0x108 build/default/debug/_ext/207392127/sys_console.o
 .debug_frame   0x00000784       0xe0 build/default/debug/_ext/207392127/sys_console_appio.o
 .debug_frame   0x00000864       0xe4 build/default/debug/_ext/1952159421/sys_debug.o
 .debug_frame   0x00000948      0x118 build/default/debug/_ext/1921105363/sys_devcon.o
 .debug_frame   0x00000a60       0x58 build/default/debug/_ext/1921105363/sys_devcon_pic32mx.o
 .debug_frame   0x00000ab8       0xc0 build/default/debug/_ext/993332121/sys_int_pic32.o
 .debug_frame   0x00000b78       0x40 build/default/debug/_ext/1458882252/croutine.o
 .debug_frame   0x00000bb8       0x90 build/default/debug/_ext/1458882252/list.o
 .debug_frame   0x00000c48      0x260 build/default/debug/_ext/1458882252/queue.o
 .debug_frame   0x00000ea8      0x524 build/default/debug/_ext/1458882252/tasks.o
 .debug_frame   0x000013cc      0x164 build/default/debug/_ext/1458882252/timers.o
 .debug_frame   0x00001530      0x138 build/default/debug/_ext/1458882252/event_groups.o
 .debug_frame   0x00001668       0x8c build/default/debug/_ext/628943767/heap_1.o
 .debug_frame   0x000016f4       0xf0 build/default/debug/_ext/1338673686/port.o
 .debug_frame   0x000017e4       0xd0 build/default/debug/_ext/639803181/sys_clk_static.o
 .debug_frame   0x000018b4      0x220 build/default/debug/_ext/822048611/sys_ports_static.o
 .debug_frame   0x00001ad4       0x58 build/default/debug/_ext/1688732426/system_init.o
 .debug_frame   0x00001b2c       0x58 build/default/debug/_ext/1688732426/system_interrupt.o
 .debug_frame   0x00001b84       0x58 build/default/debug/_ext/1688732426/system_exceptions.o
 .debug_frame   0x00001bdc       0x88 build/default/debug/_ext/1688732426/system_tasks.o
 .debug_frame   0x00001c64       0x70 build/default/debug/_ext/1688732426/rtos_hooks.o
 .debug_frame   0x00001cd4       0x2c /home/john/MPLAB-X/XC32_Compiler/bin/bin/../../lib/gcc/pic32mx/4.8.3/../../../../pic32mx/lib/libpic32.a(default-bootstrap-exception-handler.o)
 .debug_frame   0x00001d00       0x20 /home/john/MPLAB-X/XC32_Compiler/bin/bin/../../lib/gcc/pic32mx/4.8.3/../../../../pic32mx/lib/libpic32.a(default-on-reset.o)
 .debug_frame   0x00001d20       0x20 /home/john/MPLAB-X/XC32_Compiler/bin/bin/../../lib/gcc/pic32mx/4.8.3/../../../../pic32mx/lib/libpic32.a(default-on-bootstrap.o)
 .debug_frame   0x00001d40       0x20 /home/john/MPLAB-X/XC32_Compiler/bin/bin/../../lib/gcc/pic32mx/4.8.3/../../../../pic32mx/lib/libpic32.a(defaultinterrupt.o)
 .debug_frame   0x00001d60       0x98 /home/john/MPLAB-X/XC32_Compiler/bin/bin/../../lib/gcc/pic32mx/4.8.3/../../../../pic32mx/lib/libdebug.a(appio.o)
 .debug_frame   0x00001df8       0x40 /home/john/MPLAB-X/XC32_Compiler/bin/bin/../../lib/gcc/pic32mx/4.8.3/../../../../pic32mx/lib/libc.a(setbuf.o)
 .debug_frame   0x00001e38       0x28 /home/john/MPLAB-X/XC32_Compiler/bin/bin/../../lib/gcc/pic32mx/4.8.3/../../../../pic32mx/lib/libc.a(printf_s.eo)
 .debug_frame   0x00001e60       0x28 /home/john/MPLAB-X/XC32_Compiler/bin/bin/../../lib/gcc/pic32mx/4.8.3/../../../../pic32mx/lib/libc.a(scanf_s.eo)
 .debug_frame   0x00001e88       0x2c /home/john/MPLAB-X/XC32_Compiler/bin/bin/../../lib/gcc/pic32mx/4.8.3/../../../../pic32mx/lib/libc.a(vsnprintf.o)
 .debug_frame   0x00001eb4       0x38 /home/john/MPLAB-X/XC32_Compiler/bin/bin/../../lib/gcc/pic32mx/4.8.3/../../../../pic32mx/lib/libc.a(buf.o)
 .debug_frame   0x00001eec       0x38 /home/john/MPLAB-X/XC32_Compiler/bin/bin/../../lib/gcc/pic32mx/4.8.3/../../../../pic32mx/lib/libc.a(doprnt_s.eo)
 .debug_frame   0x00001f24       0x74 /home/john/MPLAB-X/XC32_Compiler/bin/bin/../../lib/gcc/pic32mx/4.8.3/../../../../pic32mx/lib/libc.a(doprnt.o)
 .debug_frame   0x00001f98       0x6c /home/john/MPLAB-X/XC32_Compiler/bin/bin/../../lib/gcc/pic32mx/4.8.3/../../../../pic32mx/lib/libc.a(doscan_s.eo)
 .debug_frame   0x00002004       0x2c /home/john/MPLAB-X/XC32_Compiler/bin/bin/../../lib/gcc/pic32mx/4.8.3/../../../../pic32mx/lib/libc.a(fgetc.o)
 .debug_frame   0x00002030       0x2c /home/john/MPLAB-X/XC32_Compiler/bin/bin/../../lib/gcc/pic32mx/4.8.3/../../../../pic32mx/lib/libc.a(_fputc_simple.o)
 .debug_frame   0x0000205c       0x20 /home/john/MPLAB-X/XC32_Compiler/bin/bin/../../lib/gcc/pic32mx/4.8.3/../../../../pic32mx/lib/libc.a(atoi.o)
 .debug_frame   0x0000207c      0x120 /home/john/MPLAB-X/XC32_Compiler/bin/bin/../../lib/gcc/pic32mx/4.8.3/../../../../pic32mx/lib/libc.a(ctypef.o)
 .debug_frame   0x0000219c       0x20 /home/john/MPLAB-X/XC32_Compiler/bin/bin/../../lib/gcc/pic32mx/4.8.3/../../../../pic32mx/lib/libc.a(ungetc.o)
 .debug_frame   0x000021bc       0x30 /home/john/MPLAB-X/XC32_Compiler/bin/bin/../../lib/gcc/pic32mx/4.8.3/../../../../pic32mx/lib/libc.a(filbuf.o)
 .debug_frame   0x000021ec       0x28 /home/john/MPLAB-X/XC32_Compiler/bin/bin/../../lib/gcc/pic32mx/4.8.3/../../../../pic32mx/lib/libc.a(_flsbuf_simple.o)
 .debug_frame   0x00002214       0x28 /home/john/MPLAB-X/XC32_Compiler/bin/bin/../../lib/gcc/pic32mx/4.8.3/../../../../pic32mx/lib/libc.a(fflush.o)
 .debug_frame   0x0000223c       0x84 /home/john/MPLAB-X/XC32_Compiler/bin/bin/../../lib/gcc/pic32mx/4.8.3/../../../../pic32mx/lib/libpic32.a(sbrk.o)
 .debug_frame   0x000022c0       0x2c /home/john/MPLAB-X/XC32_Compiler/bin/bin/../../lib/gcc/pic32mx/4.8.3/../../../../pic32mx/lib/libpic32.a(read.o)
 .debug_frame   0x000022ec       0x38 /home/john/MPLAB-X/XC32_Compiler/bin/bin/../../lib/gcc/pic32mx/4.8.3/../../../../pic32mx/lib/libpic32.a(write.o)
 .debug_frame   0x00002324       0x20 /home/john/MPLAB-X/XC32_Compiler/bin/bin/../../lib/gcc/pic32mx/4.8.3/../../../../pic32mx/lib/libe.a(_floatdisf.o)
 .debug_frame   0x00002344       0x20 /home/john/MPLAB-X/XC32_Compiler/bin/bin/../../lib/gcc/pic32mx/4.8.3/libgcc.a(_udivdi3.o)
 .debug_frame   0x00002364       0x20 /home/john/MPLAB-X/XC32_Compiler/bin/bin/../../lib/gcc/pic32mx/4.8.3/libgcc.a(_umoddi3.o)
 .debug_frame   0x00002384       0x28 /home/john/MPLAB-X/XC32_Compiler/bin/bin/../../lib/gcc/pic32mx/4.8.3/libgcc.a(floatunsisf.o)

.debug_str      0x00000000      0x7f8
 *(.debug_str)
 .debug_str     0x00000000        0x0 /home/john/MPLAB-X/XC32_Compiler/bin/bin/../../lib/gcc/pic32mx/4.8.3/../../../../pic32mx/lib/software-debug-break.o
 .debug_str     0x00000000        0x0 build/default/debug/_ext/1360937237/app_public.o
 .debug_str     0x00000000       0x15 build/default/debug/_ext/1360937237/app.o
 .debug_str     0x00000015        0x0 build/default/debug/_ext/1360937237/main.o
 .debug_str     0x00000015      0x195 build/default/debug/_ext/382300584/drv_usart.o
 .debug_str     0x000001aa       0x28 build/default/debug/_ext/382300584/drv_usart_byte_model.o
 .debug_str     0x000001d2       0x40 build/default/debug/_ext/1964585049/osal_freertos.o
 .debug_str     0x00000212        0xd build/default/debug/_ext/207392127/sys_console.o
 .debug_str     0x0000021f        0xb build/default/debug/_ext/207392127/sys_console_appio.o
 .debug_str     0x0000022a       0x12 build/default/debug/_ext/1952159421/sys_debug.o
 .debug_str     0x0000023c       0x16 build/default/debug/_ext/1921105363/sys_devcon.o
 .debug_str     0x00000252        0x6 build/default/debug/_ext/1921105363/sys_devcon_pic32mx.o
 .debug_str     0x00000258       0x2d build/default/debug/_ext/993332121/sys_int_pic32.o
 .debug_str     0x00000285        0x0 build/default/debug/_ext/1458882252/croutine.o
 .debug_str     0x00000285       0x2b build/default/debug/_ext/1458882252/list.o
 .debug_str     0x000002b0       0xf1 build/default/debug/_ext/1458882252/queue.o
 .debug_str     0x000003a1      0x191 build/default/debug/_ext/1458882252/tasks.o
 .debug_str     0x00000532       0xbf build/default/debug/_ext/1458882252/timers.o
 .debug_str     0x000005f1       0xe6 build/default/debug/_ext/1458882252/event_groups.o
 .debug_str     0x000006d7       0x1d build/default/debug/_ext/628943767/heap_1.o
 .debug_str     0x000006f4       0x37 build/default/debug/_ext/1338673686/port.o
 .debug_str     0x0000072b       0x39 build/default/debug/_ext/639803181/sys_clk_static.o
 .debug_str     0x00000764       0x55 build/default/debug/_ext/822048611/sys_ports_static.o
 .debug_str     0x000007b9       0x36 build/default/debug/_ext/1688732426/system_init.o
 .debug_str     0x000007ef        0x0 build/default/debug/_ext/1688732426/system_interrupt.o
 .debug_str     0x000007ef        0x0 build/default/debug/_ext/1688732426/system_exceptions.o
 .debug_str     0x000007ef        0x0 build/default/debug/_ext/1688732426/system_tasks.o
 .debug_str     0x000007ef        0x9 build/default/debug/_ext/1688732426/rtos_hooks.o
 .debug_str     0x000007f8        0x0 /home/john/MPLAB-X/XC32_Compiler/bin/bin/../../lib/gcc/pic32mx/4.8.3/../../../../pic32mx/lib/libpic32.a(default-bootstrap-exception-handler.o)
 .debug_str     0x000007f8        0x0 /home/john/MPLAB-X/XC32_Compiler/bin/bin/../../lib/gcc/pic32mx/4.8.3/../../../../pic32mx/lib/libpic32.a(default-on-reset.o)
 .debug_str     0x000007f8        0x0 /home/john/MPLAB-X/XC32_Compiler/bin/bin/../../lib/gcc/pic32mx/4.8.3/../../../../pic32mx/lib/libpic32.a(default-on-bootstrap.o)
 .debug_str     0x000007f8        0x0 /home/john/MPLAB-X/XC32_Compiler/bin/bin/../../lib/gcc/pic32mx/4.8.3/../../../../pic32mx/lib/libpic32.a(defaultinterrupt.o)
 .debug_str     0x000007f8        0x0 /home/john/MPLAB-X/XC32_Compiler/bin/bin/../../lib/gcc/pic32mx/4.8.3/../../../../pic32mx/lib/libdebug.a(appio.o)
 .debug_str     0x000007f8        0x0 /home/john/MPLAB-X/XC32_Compiler/bin/bin/../../lib/gcc/pic32mx/4.8.3/../../../../pic32mx/lib/libpic32.a(xc32_uart.o)
 .debug_str     0x000007f8        0x0 /home/john/MPLAB-X/XC32_Compiler/bin/bin/../../lib/gcc/pic32mx/4.8.3/../../../../pic32mx/lib/libc.a(_iob.o)
 .debug_str     0x000007f8        0x0 /home/john/MPLAB-X/XC32_Compiler/bin/bin/../../lib/gcc/pic32mx/4.8.3/../../../../pic32mx/lib/libc.a(setbuf.o)
 .debug_str     0x000007f8        0x0 /home/john/MPLAB-X/XC32_Compiler/bin/bin/../../lib/gcc/pic32mx/4.8.3/../../../../pic32mx/lib/libc.a(printf_s.eo)
 .debug_str     0x000007f8        0x0 /home/john/MPLAB-X/XC32_Compiler/bin/bin/../../lib/gcc/pic32mx/4.8.3/../../../../pic32mx/lib/libc.a(scanf_s.eo)
 .debug_str     0x000007f8        0x0 /home/john/MPLAB-X/XC32_Compiler/bin/bin/../../lib/gcc/pic32mx/4.8.3/../../../../pic32mx/lib/libc.a(vsnprintf.o)
 .debug_str     0x000007f8        0x0 /home/john/MPLAB-X/XC32_Compiler/bin/bin/../../lib/gcc/pic32mx/4.8.3/../../../../pic32mx/lib/libc.a(buf.o)
 .debug_str     0x000007f8        0x0 /home/john/MPLAB-X/XC32_Compiler/bin/bin/../../lib/gcc/pic32mx/4.8.3/../../../../pic32mx/lib/libc.a(errno.o)
 .debug_str     0x000007f8        0x0 /home/john/MPLAB-X/XC32_Compiler/bin/bin/../../lib/gcc/pic32mx/4.8.3/../../../../pic32mx/lib/libc.a(doprnt_s.eo)
 .debug_str     0x000007f8        0x0 /home/john/MPLAB-X/XC32_Compiler/bin/bin/../../lib/gcc/pic32mx/4.8.3/../../../../pic32mx/lib/libc.a(doprnt.o)
 .debug_str     0x000007f8        0x0 /home/john/MPLAB-X/XC32_Compiler/bin/bin/../../lib/gcc/pic32mx/4.8.3/../../../../pic32mx/lib/libc.a(doscan_s.eo)
 .debug_str     0x000007f8        0x0 /home/john/MPLAB-X/XC32_Compiler/bin/bin/../../lib/gcc/pic32mx/4.8.3/../../../../pic32mx/lib/libc.a(fgetc.o)
 .debug_str     0x000007f8        0x0 /home/john/MPLAB-X/XC32_Compiler/bin/bin/../../lib/gcc/pic32mx/4.8.3/../../../../pic32mx/lib/libc.a(_fputc_simple.o)
 .debug_str     0x000007f8        0x0 /home/john/MPLAB-X/XC32_Compiler/bin/bin/../../lib/gcc/pic32mx/4.8.3/../../../../pic32mx/lib/libc.a(atoi.o)
 .debug_str     0x000007f8        0x0 /home/john/MPLAB-X/XC32_Compiler/bin/bin/../../lib/gcc/pic32mx/4.8.3/../../../../pic32mx/lib/libc.a(ctype.o)
 .debug_str     0x000007f8        0x0 /home/john/MPLAB-X/XC32_Compiler/bin/bin/../../lib/gcc/pic32mx/4.8.3/../../../../pic32mx/lib/libc.a(ctypef.o)
 .debug_str     0x000007f8        0x0 /home/john/MPLAB-X/XC32_Compiler/bin/bin/../../lib/gcc/pic32mx/4.8.3/../../../../pic32mx/lib/libc.a(powersf.o)
 .debug_str     0x000007f8        0x0 /home/john/MPLAB-X/XC32_Compiler/bin/bin/../../lib/gcc/pic32mx/4.8.3/../../../../pic32mx/lib/libc.a(ungetc.o)
 .debug_str     0x000007f8        0x0 /home/john/MPLAB-X/XC32_Compiler/bin/bin/../../lib/gcc/pic32mx/4.8.3/../../../../pic32mx/lib/libc.a(filbuf.o)
 .debug_str     0x000007f8        0x0 /home/john/MPLAB-X/XC32_Compiler/bin/bin/../../lib/gcc/pic32mx/4.8.3/../../../../pic32mx/lib/libc.a(_flsbuf_simple.o)
 .debug_str     0x000007f8        0x0 /home/john/MPLAB-X/XC32_Compiler/bin/bin/../../lib/gcc/pic32mx/4.8.3/../../../../pic32mx/lib/libc.a(fflush.o)
 .debug_str     0x000007f8        0x0 /home/john/MPLAB-X/XC32_Compiler/bin/bin/../../lib/gcc/pic32mx/4.8.3/../../../../pic32mx/lib/libpic32.a(sbrk.o)
 .debug_str     0x000007f8        0x0 /home/john/MPLAB-X/XC32_Compiler/bin/bin/../../lib/gcc/pic32mx/4.8.3/../../../../pic32mx/lib/libpic32.a(read.o)
 .debug_str     0x000007f8        0x0 /home/john/MPLAB-X/XC32_Compiler/bin/bin/../../lib/gcc/pic32mx/4.8.3/../../../../pic32mx/lib/libpic32.a(write.o)
 .debug_str     0x000007f8        0x0 /home/john/MPLAB-X/XC32_Compiler/bin/bin/../../lib/gcc/pic32mx/4.8.3/../../../../pic32mx/lib/libe.a(_floatdisf.o)
 .debug_str     0x000007f8        0x0 /home/john/MPLAB-X/XC32_Compiler/bin/bin/../../lib/gcc/pic32mx/4.8.3/libgcc.a(_udivdi3.o)
 .debug_str     0x000007f8        0x0 /home/john/MPLAB-X/XC32_Compiler/bin/bin/../../lib/gcc/pic32mx/4.8.3/libgcc.a(_umoddi3.o)
 .debug_str     0x000007f8        0x0 /home/john/MPLAB-X/XC32_Compiler/bin/bin/../../lib/gcc/pic32mx/4.8.3/libgcc.a(floatunsisf.o)

.debug_loc      0x00000000     0xdb47
 *(.debug_loc)
 .debug_loc     0x00000000       0x98 build/default/debug/_ext/1360937237/app_public.o
 .debug_loc     0x00000098       0x52 build/default/debug/_ext/1360937237/app.o
 .debug_loc     0x000000ea       0x20 build/default/debug/_ext/1360937237/main.o
 .debug_loc     0x0000010a     0x5b4d build/default/debug/_ext/382300584/drv_usart.o
 .debug_loc     0x00005c57      0x6d1 build/default/debug/_ext/382300584/drv_usart_byte_model.o
 .debug_loc     0x00006328      0x58c build/default/debug/_ext/1964585049/osal_freertos.o
 .debug_loc     0x000068b4      0x50a build/default/debug/_ext/207392127/sys_console.o
 .debug_loc     0x00006dbe      0x3f8 build/default/debug/_ext/207392127/sys_console_appio.o
 .debug_loc     0x000071b6      0x123 build/default/debug/_ext/1952159421/sys_debug.o
 .debug_loc     0x000072d9      0x150 build/default/debug/_ext/1921105363/sys_devcon.o
 .debug_loc     0x00007429      0x10c build/default/debug/_ext/1921105363/sys_devcon_pic32mx.o
 .debug_loc     0x00007535      0x10d build/default/debug/_ext/993332121/sys_int_pic32.o
 .debug_loc     0x00007642       0x31 build/default/debug/_ext/1458882252/list.o
 .debug_loc     0x00007673      0xf6c build/default/debug/_ext/1458882252/queue.o
 .debug_loc     0x000085df     0x1a39 build/default/debug/_ext/1458882252/tasks.o
 .debug_loc     0x0000a018      0x912 build/default/debug/_ext/1458882252/timers.o
 .debug_loc     0x0000a92a      0xa0a build/default/debug/_ext/1458882252/event_groups.o
 .debug_loc     0x0000b334       0x69 build/default/debug/_ext/628943767/heap_1.o
 .debug_loc     0x0000b39d      0x1aa build/default/debug/_ext/1338673686/port.o
 .debug_loc     0x0000b547       0xc1 build/default/debug/_ext/639803181/sys_clk_static.o
 .debug_loc     0x0000b608      0xecf build/default/debug/_ext/822048611/sys_ports_static.o
 .debug_loc     0x0000c4d7       0x41 build/default/debug/_ext/1688732426/system_init.o
 .debug_loc     0x0000c518       0x20 build/default/debug/_ext/1688732426/system_interrupt.o
 .debug_loc     0x0000c538       0x20 build/default/debug/_ext/1688732426/system_exceptions.o
 .debug_loc     0x0000c558       0x60 build/default/debug/_ext/1688732426/system_tasks.o
 .debug_loc     0x0000c5b8       0x74 build/default/debug/_ext/1688732426/rtos_hooks.o
 .debug_loc     0x0000c62c      0xa6a /home/john/MPLAB-X/XC32_Compiler/bin/bin/../../lib/gcc/pic32mx/4.8.3/libgcc.a(_udivdi3.o)
 .debug_loc     0x0000d096      0xa3d /home/john/MPLAB-X/XC32_Compiler/bin/bin/../../lib/gcc/pic32mx/4.8.3/libgcc.a(_umoddi3.o)
 .debug_loc     0x0000dad3       0x74 /home/john/MPLAB-X/XC32_Compiler/bin/bin/../../lib/gcc/pic32mx/4.8.3/libgcc.a(floatunsisf.o)

.debug_macinfo
 *(.debug_macinfo)

.debug_weaknames
 *(.debug_weaknames)

.debug_funcnames
 *(.debug_funcnames)

.debug_typenames
 *(.debug_typenames)

.debug_varnames
 *(.debug_varnames)

.debug_pubtypes
 *(.debug_pubtypes)

.debug_ranges   0x00000000     0x1f58
 *(.debug_ranges)
 .debug_ranges  0x00000000       0x10 /home/john/MPLAB-X/XC32_Compiler/bin/bin/../../lib/gcc/pic32mx/4.8.3/../../../../pic32mx/lib/software-debug-break.o
 .debug_ranges  0x00000010       0x30 build/default/debug/_ext/1360937237/app_public.o
 .debug_ranges  0x00000040       0x38 build/default/debug/_ext/1360937237/app.o
 .debug_ranges  0x00000078       0x28 build/default/debug/_ext/1360937237/main.o
 .debug_ranges  0x000000a0      0xed8 build/default/debug/_ext/382300584/drv_usart.o
 .debug_ranges  0x00000f78      0x130 build/default/debug/_ext/382300584/drv_usart_byte_model.o
 .debug_ranges  0x000010a8       0x90 build/default/debug/_ext/1964585049/osal_freertos.o
 .debug_ranges  0x00001138       0x50 build/default/debug/_ext/207392127/sys_console.o
 .debug_ranges  0x00001188       0x90 build/default/debug/_ext/207392127/sys_console_appio.o
 .debug_ranges  0x00001218       0x68 build/default/debug/_ext/1952159421/sys_debug.o
 .debug_ranges  0x00001280       0x80 build/default/debug/_ext/1921105363/sys_devcon.o
 .debug_ranges  0x00001300       0x28 build/default/debug/_ext/1921105363/sys_devcon_pic32mx.o
 .debug_ranges  0x00001328       0x68 build/default/debug/_ext/993332121/sys_int_pic32.o
 .debug_ranges  0x00001390       0x20 build/default/debug/_ext/1458882252/croutine.o
 .debug_ranges  0x000013b0       0x48 build/default/debug/_ext/1458882252/list.o
 .debug_ranges  0x000013f8       0xc0 build/default/debug/_ext/1458882252/queue.o
 .debug_ranges  0x000014b8      0x1c8 build/default/debug/_ext/1458882252/tasks.o
 .debug_ranges  0x00001680      0x120 build/default/debug/_ext/1458882252/timers.o
 .debug_ranges  0x000017a0       0xb0 build/default/debug/_ext/1458882252/event_groups.o
 .debug_ranges  0x00001850       0x40 build/default/debug/_ext/628943767/heap_1.o
 .debug_ranges  0x00001890       0x60 build/default/debug/_ext/1338673686/port.o
 .debug_ranges  0x000018f0       0x58 build/default/debug/_ext/639803181/sys_clk_static.o
 .debug_ranges  0x00001948      0x110 build/default/debug/_ext/822048611/sys_ports_static.o
 .debug_ranges  0x00001a58       0x28 build/default/debug/_ext/1688732426/system_init.o
 .debug_ranges  0x00001a80       0x28 build/default/debug/_ext/1688732426/system_interrupt.o
 .debug_ranges  0x00001aa8       0x28 build/default/debug/_ext/1688732426/system_exceptions.o
 .debug_ranges  0x00001ad0       0x38 build/default/debug/_ext/1688732426/system_tasks.o
 .debug_ranges  0x00001b08       0x20 build/default/debug/_ext/1688732426/system_interrupt_a.o
 .debug_ranges  0x00001b28       0x30 build/default/debug/_ext/1688732426/rtos_hooks.o
 .debug_ranges  0x00001b58       0x10 /home/john/MPLAB-X/XC32_Compiler/bin/bin/../../lib/gcc/pic32mx/4.8.3/../../../../pic32mx/lib/libpic32.a(default-bootstrap-exception-handler.o)
 .debug_ranges  0x00001b68       0x10 /home/john/MPLAB-X/XC32_Compiler/bin/bin/../../lib/gcc/pic32mx/4.8.3/../../../../pic32mx/lib/libpic32.a(default-on-reset.o)
 .debug_ranges  0x00001b78       0x10 /home/john/MPLAB-X/XC32_Compiler/bin/bin/../../lib/gcc/pic32mx/4.8.3/../../../../pic32mx/lib/libpic32.a(default-on-bootstrap.o)
 .debug_ranges  0x00001b88       0x10 /home/john/MPLAB-X/XC32_Compiler/bin/bin/../../lib/gcc/pic32mx/4.8.3/../../../../pic32mx/lib/libpic32.a(defaultinterrupt.o)
 .debug_ranges  0x00001b98       0x40 /home/john/MPLAB-X/XC32_Compiler/bin/bin/../../lib/gcc/pic32mx/4.8.3/../../../../pic32mx/lib/libdebug.a(appio.o)
 .debug_ranges  0x00001bd8       0x18 /home/john/MPLAB-X/XC32_Compiler/bin/bin/../../lib/gcc/pic32mx/4.8.3/../../../../pic32mx/lib/libc.a(setbuf.o)
 .debug_ranges  0x00001bf0       0x10 /home/john/MPLAB-X/XC32_Compiler/bin/bin/../../lib/gcc/pic32mx/4.8.3/../../../../pic32mx/lib/libc.a(printf_s.eo)
 .debug_ranges  0x00001c00       0x10 /home/john/MPLAB-X/XC32_Compiler/bin/bin/../../lib/gcc/pic32mx/4.8.3/../../../../pic32mx/lib/libc.a(scanf_s.eo)
 .debug_ranges  0x00001c10       0x10 /home/john/MPLAB-X/XC32_Compiler/bin/bin/../../lib/gcc/pic32mx/4.8.3/../../../../pic32mx/lib/libc.a(vsnprintf.o)
 .debug_ranges  0x00001c20       0x18 /home/john/MPLAB-X/XC32_Compiler/bin/bin/../../lib/gcc/pic32mx/4.8.3/../../../../pic32mx/lib/libc.a(buf.o)
 .debug_ranges  0x00001c38       0x10 /home/john/MPLAB-X/XC32_Compiler/bin/bin/../../lib/gcc/pic32mx/4.8.3/../../../../pic32mx/lib/libc.a(doprnt_s.eo)
 .debug_ranges  0x00001c48       0x20 /home/john/MPLAB-X/XC32_Compiler/bin/bin/../../lib/gcc/pic32mx/4.8.3/../../../../pic32mx/lib/libc.a(doprnt.o)
 .debug_ranges  0x00001c68       0x20 /home/john/MPLAB-X/XC32_Compiler/bin/bin/../../lib/gcc/pic32mx/4.8.3/../../../../pic32mx/lib/libc.a(doscan_s.eo)
 .debug_ranges  0x00001c88       0x10 /home/john/MPLAB-X/XC32_Compiler/bin/bin/../../lib/gcc/pic32mx/4.8.3/../../../../pic32mx/lib/libc.a(fgetc.o)
 .debug_ranges  0x00001c98       0x10 /home/john/MPLAB-X/XC32_Compiler/bin/bin/../../lib/gcc/pic32mx/4.8.3/../../../../pic32mx/lib/libc.a(_fputc_simple.o)
 .debug_ranges  0x00001ca8       0x10 /home/john/MPLAB-X/XC32_Compiler/bin/bin/../../lib/gcc/pic32mx/4.8.3/../../../../pic32mx/lib/libc.a(atoi.o)
 .debug_ranges  0x00001cb8       0x90 /home/john/MPLAB-X/XC32_Compiler/bin/bin/../../lib/gcc/pic32mx/4.8.3/../../../../pic32mx/lib/libc.a(ctypef.o)
 .debug_ranges  0x00001d48       0x10 /home/john/MPLAB-X/XC32_Compiler/bin/bin/../../lib/gcc/pic32mx/4.8.3/../../../../pic32mx/lib/libc.a(ungetc.o)
 .debug_ranges  0x00001d58       0x10 /home/john/MPLAB-X/XC32_Compiler/bin/bin/../../lib/gcc/pic32mx/4.8.3/../../../../pic32mx/lib/libc.a(filbuf.o)
 .debug_ranges  0x00001d68       0x10 /home/john/MPLAB-X/XC32_Compiler/bin/bin/../../lib/gcc/pic32mx/4.8.3/../../../../pic32mx/lib/libc.a(_flsbuf_simple.o)
 .debug_ranges  0x00001d78       0x10 /home/john/MPLAB-X/XC32_Compiler/bin/bin/../../lib/gcc/pic32mx/4.8.3/../../../../pic32mx/lib/libc.a(fflush.o)
 .debug_ranges  0x00001d88       0x30 /home/john/MPLAB-X/XC32_Compiler/bin/bin/../../lib/gcc/pic32mx/4.8.3/../../../../pic32mx/lib/libpic32.a(sbrk.o)
 .debug_ranges  0x00001db8       0x10 /home/john/MPLAB-X/XC32_Compiler/bin/bin/../../lib/gcc/pic32mx/4.8.3/../../../../pic32mx/lib/libpic32.a(read.o)
 .debug_ranges  0x00001dc8       0x10 /home/john/MPLAB-X/XC32_Compiler/bin/bin/../../lib/gcc/pic32mx/4.8.3/../../../../pic32mx/lib/libpic32.a(write.o)
 .debug_ranges  0x00001dd8       0x10 /home/john/MPLAB-X/XC32_Compiler/bin/bin/../../lib/gcc/pic32mx/4.8.3/../../../../pic32mx/lib/libe.a(_floatdisf.o)
 .debug_ranges  0x00001de8       0x98 /home/john/MPLAB-X/XC32_Compiler/bin/bin/../../lib/gcc/pic32mx/4.8.3/libgcc.a(_udivdi3.o)
 .debug_ranges  0x00001e80       0xd8 /home/john/MPLAB-X/XC32_Compiler/bin/bin/../../lib/gcc/pic32mx/4.8.3/libgcc.a(_umoddi3.o)

.gnu.attributes
                0x00000000       0x10
 *(.gnu.attributes)
 .gnu.attributes
                0x00000000       0x10 /home/john/MPLAB-X/XC32_Compiler/bin/bin/../../lib/gcc/pic32mx/4.8.3/../../../../pic32mx/lib/software-debug-break.o
 .gnu.attributes
                0x00000010       0x10 build/default/debug/_ext/1360937237/app_public.o
 .gnu.attributes
                0x00000020       0x10 build/default/debug/_ext/1360937237/app.o
 .gnu.attributes
                0x00000030       0x10 build/default/debug/_ext/1360937237/main.o
 .gnu.attributes
                0x00000040       0x10 build/default/debug/_ext/382300584/drv_usart.o
 .gnu.attributes
                0x00000050       0x10 build/default/debug/_ext/382300584/drv_usart_byte_model.o
 .gnu.attributes
                0x00000060       0x10 build/default/debug/_ext/1964585049/osal_freertos.o
 .gnu.attributes
                0x00000070       0x10 build/default/debug/_ext/207392127/sys_console.o
 .gnu.attributes
                0x00000080       0x10 build/default/debug/_ext/207392127/sys_console_appio.o
 .gnu.attributes
                0x00000090       0x10 build/default/debug/_ext/1952159421/sys_debug.o
 .gnu.attributes
                0x000000a0       0x10 build/default/debug/_ext/1921105363/sys_devcon.o
 .gnu.attributes
                0x000000b0       0x10 build/default/debug/_ext/1921105363/sys_devcon_pic32mx.o
 .gnu.attributes
                0x000000c0       0x10 build/default/debug/_ext/993332121/sys_int_pic32.o
 .gnu.attributes
                0x000000d0       0x10 build/default/debug/_ext/1458882252/croutine.o
 .gnu.attributes
                0x000000e0       0x10 build/default/debug/_ext/1458882252/list.o
 .gnu.attributes
                0x000000f0       0x10 build/default/debug/_ext/1458882252/queue.o
 .gnu.attributes
                0x00000100       0x10 build/default/debug/_ext/1458882252/tasks.o
 .gnu.attributes
                0x00000110       0x10 build/default/debug/_ext/1458882252/timers.o
 .gnu.attributes
                0x00000120       0x10 build/default/debug/_ext/1458882252/event_groups.o
 .gnu.attributes
                0x00000130       0x10 build/default/debug/_ext/628943767/heap_1.o
 .gnu.attributes
                0x00000140       0x10 build/default/debug/_ext/1338673686/port.o
 .gnu.attributes
                0x00000150       0x10 build/default/debug/_ext/639803181/sys_clk_static.o
 .gnu.attributes
                0x00000160       0x10 build/default/debug/_ext/822048611/sys_ports_static.o
 .gnu.attributes
                0x00000170       0x10 build/default/debug/_ext/1688732426/system_init.o
 .gnu.attributes
                0x00000180       0x10 build/default/debug/_ext/1688732426/system_interrupt.o
 .gnu.attributes
                0x00000190       0x10 build/default/debug/_ext/1688732426/system_exceptions.o
 .gnu.attributes
                0x000001a0       0x10 build/default/debug/_ext/1688732426/system_tasks.o
 .gnu.attributes
                0x000001b0       0x10 build/default/debug/_ext/1688732426/rtos_hooks.o
 .gnu.attributes
                0x000001c0       0x10 /home/john/MPLAB-X/XC32_Compiler/bin/bin/../../lib/gcc/pic32mx/4.8.3/../../../../pic32mx/lib/libpic32.a(default-bootstrap-exception-handler.o)
 .gnu.attributes
                0x000001d0       0x10 /home/john/MPLAB-X/XC32_Compiler/bin/bin/../../lib/gcc/pic32mx/4.8.3/../../../../pic32mx/lib/libpic32.a(default-on-reset.o)
 .gnu.attributes
                0x000001e0       0x10 /home/john/MPLAB-X/XC32_Compiler/bin/bin/../../lib/gcc/pic32mx/4.8.3/../../../../pic32mx/lib/libpic32.a(default-on-bootstrap.o)
 .gnu.attributes
                0x000001f0       0x10 /home/john/MPLAB-X/XC32_Compiler/bin/bin/../../lib/gcc/pic32mx/4.8.3/../../../../pic32mx/lib/libpic32.a(defaultinterrupt.o)
 .gnu.attributes
                0x00000200       0x10 /home/john/MPLAB-X/XC32_Compiler/bin/bin/../../lib/gcc/pic32mx/4.8.3/../../../../pic32mx/lib/libdebug.a(appio.o)
 .gnu.attributes
                0x00000210       0x10 /home/john/MPLAB-X/XC32_Compiler/bin/bin/../../lib/gcc/pic32mx/4.8.3/../../../../pic32mx/lib/libpic32.a(xc32_uart.o)
 .gnu.attributes
                0x00000220       0x10 /home/john/MPLAB-X/XC32_Compiler/bin/bin/../../lib/gcc/pic32mx/4.8.3/../../../../pic32mx/lib/libc.a(_iob.o)
 .gnu.attributes
                0x00000230       0x10 /home/john/MPLAB-X/XC32_Compiler/bin/bin/../../lib/gcc/pic32mx/4.8.3/../../../../pic32mx/lib/libc.a(setbuf.o)
 .gnu.attributes
                0x00000240       0x10 /home/john/MPLAB-X/XC32_Compiler/bin/bin/../../lib/gcc/pic32mx/4.8.3/../../../../pic32mx/lib/libc.a(printf_s.eo)
 .gnu.attributes
                0x00000250       0x10 /home/john/MPLAB-X/XC32_Compiler/bin/bin/../../lib/gcc/pic32mx/4.8.3/../../../../pic32mx/lib/libc.a(scanf_s.eo)
 .gnu.attributes
                0x00000260       0x10 /home/john/MPLAB-X/XC32_Compiler/bin/bin/../../lib/gcc/pic32mx/4.8.3/../../../../pic32mx/lib/libc.a(vsnprintf.o)
 .gnu.attributes
                0x00000270       0x10 /home/john/MPLAB-X/XC32_Compiler/bin/bin/../../lib/gcc/pic32mx/4.8.3/../../../../pic32mx/lib/libc.a(buf.o)
 .gnu.attributes
                0x00000280       0x10 /home/john/MPLAB-X/XC32_Compiler/bin/bin/../../lib/gcc/pic32mx/4.8.3/../../../../pic32mx/lib/libc.a(errno.o)
 .gnu.attributes
                0x00000290       0x10 /home/john/MPLAB-X/XC32_Compiler/bin/bin/../../lib/gcc/pic32mx/4.8.3/../../../../pic32mx/lib/libc.a(doprnt_s.eo)
 .gnu.attributes
                0x000002a0       0x10 /home/john/MPLAB-X/XC32_Compiler/bin/bin/../../lib/gcc/pic32mx/4.8.3/../../../../pic32mx/lib/libc.a(doprnt.o)
 .gnu.attributes
                0x000002b0       0x10 /home/john/MPLAB-X/XC32_Compiler/bin/bin/../../lib/gcc/pic32mx/4.8.3/../../../../pic32mx/lib/libc.a(doscan_s.eo)
 .gnu.attributes
                0x000002c0       0x10 /home/john/MPLAB-X/XC32_Compiler/bin/bin/../../lib/gcc/pic32mx/4.8.3/../../../../pic32mx/lib/libc.a(fgetc.o)
 .gnu.attributes
                0x000002d0       0x10 /home/john/MPLAB-X/XC32_Compiler/bin/bin/../../lib/gcc/pic32mx/4.8.3/../../../../pic32mx/lib/libc.a(_fputc_simple.o)
 .gnu.attributes
                0x000002e0       0x10 /home/john/MPLAB-X/XC32_Compiler/bin/bin/../../lib/gcc/pic32mx/4.8.3/../../../../pic32mx/lib/libc.a(atoi.o)
 .gnu.attributes
                0x000002f0       0x10 /home/john/MPLAB-X/XC32_Compiler/bin/bin/../../lib/gcc/pic32mx/4.8.3/../../../../pic32mx/lib/libc.a(ctype.o)
 .gnu.attributes
                0x00000300       0x10 /home/john/MPLAB-X/XC32_Compiler/bin/bin/../../lib/gcc/pic32mx/4.8.3/../../../../pic32mx/lib/libc.a(ctypef.o)
 .gnu.attributes
                0x00000310       0x10 /home/john/MPLAB-X/XC32_Compiler/bin/bin/../../lib/gcc/pic32mx/4.8.3/../../../../pic32mx/lib/libc.a(powersf.o)
 .gnu.attributes
                0x00000320       0x10 /home/john/MPLAB-X/XC32_Compiler/bin/bin/../../lib/gcc/pic32mx/4.8.3/../../../../pic32mx/lib/libc.a(ungetc.o)
 .gnu.attributes
                0x00000330       0x10 /home/john/MPLAB-X/XC32_Compiler/bin/bin/../../lib/gcc/pic32mx/4.8.3/../../../../pic32mx/lib/libc.a(filbuf.o)
 .gnu.attributes
                0x00000340       0x10 /home/john/MPLAB-X/XC32_Compiler/bin/bin/../../lib/gcc/pic32mx/4.8.3/../../../../pic32mx/lib/libc.a(_flsbuf_simple.o)
 .gnu.attributes
                0x00000350       0x10 /home/john/MPLAB-X/XC32_Compiler/bin/bin/../../lib/gcc/pic32mx/4.8.3/../../../../pic32mx/lib/libc.a(fflush.o)
 .gnu.attributes
                0x00000360       0x10 /home/john/MPLAB-X/XC32_Compiler/bin/bin/../../lib/gcc/pic32mx/4.8.3/../../../../pic32mx/lib/libpic32.a(sbrk.o)
 .gnu.attributes
                0x00000370       0x10 /home/john/MPLAB-X/XC32_Compiler/bin/bin/../../lib/gcc/pic32mx/4.8.3/../../../../pic32mx/lib/libpic32.a(read.o)
 .gnu.attributes
                0x00000380       0x10 /home/john/MPLAB-X/XC32_Compiler/bin/bin/../../lib/gcc/pic32mx/4.8.3/../../../../pic32mx/lib/libpic32.a(write.o)
 .gnu.attributes
                0x00000390       0x10 /home/john/MPLAB-X/XC32_Compiler/bin/bin/../../lib/gcc/pic32mx/4.8.3/../../../../pic32mx/lib/libe.a(_floatdisf.o)
 .gnu.attributes
                0x000003a0       0x10 /home/john/MPLAB-X/XC32_Compiler/bin/bin/../../lib/gcc/pic32mx/4.8.3/libgcc.a(_udivdi3.o)
 .gnu.attributes
                0x000003b0       0x10 /home/john/MPLAB-X/XC32_Compiler/bin/bin/../../lib/gcc/pic32mx/4.8.3/libgcc.a(_umoddi3.o)
 .gnu.attributes
                0x000003c0       0x10 /home/john/MPLAB-X/XC32_Compiler/bin/bin/../../lib/gcc/pic32mx/4.8.3/libgcc.a(floatunsisf.o)
LOAD /home/john/MPLAB-X/XC32_Compiler/bin/bin/../../lib/gcc/pic32mx/4.8.3/libgcc.a
START GROUP
LOAD /home/john/MPLAB-X/XC32_Compiler/bin/bin/../../lib/gcc/pic32mx/4.8.3/../../../../pic32mx/lib/libpic32.a
LOAD /home/john/MPLAB-X/XC32_Compiler/bin/bin/../../lib/gcc/pic32mx/4.8.3/../../../../pic32mx/lib/libdebug.a
LOAD /home/john/MPLAB-X/XC32_Compiler/bin/bin/../../lib/gcc/pic32mx/4.8.3/../../../../pic32mx/lib/libpic32.a
LOAD /home/john/MPLAB-X/XC32_Compiler/bin/bin/../../lib/gcc/pic32mx/4.8.3/../../../../pic32mx/lib/libm.a
LOAD /home/john/MPLAB-X/XC32_Compiler/bin/bin/../../lib/gcc/pic32mx/4.8.3/../../../../pic32mx/lib/libe.a
LOAD /home/john/MPLAB-X/XC32_Compiler/bin/bin/../../lib/gcc/pic32mx/4.8.3/../../../../pic32mx/lib/libdsp.a
LOAD /home/john/MPLAB-X/XC32_Compiler/bin/bin/../../lib/gcc/pic32mx/4.8.3/libgcc.a
LOAD /home/john/MPLAB-X/XC32_Compiler/bin/bin/../../lib/gcc/pic32mx/4.8.3/../../../../pic32mx/lib/libc.a
LOAD /home/john/MPLAB-X/XC32_Compiler/bin/bin/../../lib/gcc/pic32mx/4.8.3/../../../../pic32mx/lib/libc.a
LOAD /home/john/MPLAB-X/XC32_Compiler/bin/bin/../../lib/gcc/pic32mx/4.8.3/../../../../pic32mx/lib/libpic32.a
END GROUP
LOAD /home/john/MPLAB-X/XC32_Compiler/bin/bin/../../lib/gcc/pic32mx/4.8.3/libgcc.a
OUTPUT(dist/default/debug/milestone_one.X.debug.elf elf32-tradlittlemips)
LOAD stack
LOAD data_init

.reginfo        0x00000000       0x18
 .reginfo       0x00000000       0x18 /home/john/MPLAB-X/XC32_Compiler/bin/bin/../../lib/gcc/pic32mx/4.8.3/../../../../pic32mx/lib/./proc/32MX795F512L/crt0_mips32r2.o

.__pic32_sk_init
                0x00000000        0x0
 .__pic32_sk_init
                0x00000000        0x0 build/default/debug/_ext/1360937237/app_public.o
 .__pic32_sk_init
                0x00000000        0x0 build/default/debug/_ext/1360937237/app.o
 .__pic32_sk_init
                0x00000000        0x0 build/default/debug/_ext/1360937237/main.o
 .__pic32_sk_init
                0x00000000        0x0 build/default/debug/_ext/382300584/drv_usart.o
 .__pic32_sk_init
                0x00000000        0x0 build/default/debug/_ext/382300584/drv_usart_byte_model.o
 .__pic32_sk_init
                0x00000000        0x0 build/default/debug/_ext/1964585049/osal_freertos.o
 .__pic32_sk_init
                0x00000000        0x0 build/default/debug/_ext/207392127/sys_console_appio.o
 .__pic32_sk_init
                0x00000000        0x0 build/default/debug/_ext/1952159421/sys_debug.o
 .__pic32_sk_init
                0x00000000        0x0 build/default/debug/_ext/1921105363/sys_devcon.o
 .__pic32_sk_init
                0x00000000        0x0 build/default/debug/_ext/1921105363/sys_devcon_pic32mx.o
 .__pic32_sk_init
                0x00000000        0x0 build/default/debug/_ext/993332121/sys_int_pic32.o
 .__pic32_sk_init
                0x00000000        0x0 build/default/debug/_ext/1458882252/croutine.o
 .__pic32_sk_init
                0x00000000        0x0 build/default/debug/_ext/1458882252/list.o
 .__pic32_sk_init
                0x00000000        0x0 build/default/debug/_ext/1458882252/queue.o
 .__pic32_sk_init
                0x00000000        0x0 build/default/debug/_ext/1458882252/tasks.o
 .__pic32_sk_init
                0x00000000        0x0 build/default/debug/_ext/1458882252/timers.o
 .__pic32_sk_init
                0x00000000        0x0 build/default/debug/_ext/1458882252/event_groups.o
 .__pic32_sk_init
                0x00000000        0x0 build/default/debug/_ext/628943767/heap_1.o
 .__pic32_sk_init
                0x00000000        0x0 build/default/debug/_ext/1338673686/port.o
 .__pic32_sk_init
                0x00000000        0x0 build/default/debug/_ext/639803181/sys_clk_static.o
 .__pic32_sk_init
                0x00000000        0x0 build/default/debug/_ext/822048611/sys_ports_static.o
 .__pic32_sk_init
                0x00000000        0x0 build/default/debug/_ext/1688732426/system_init.o
 .__pic32_sk_init
                0x00000000        0x0 build/default/debug/_ext/1688732426/system_interrupt.o
 .__pic32_sk_init
                0x00000000        0x0 build/default/debug/_ext/1688732426/system_exceptions.o
 .__pic32_sk_init
                0x00000000        0x0 build/default/debug/_ext/1688732426/system_tasks.o
 .__pic32_sk_init
                0x00000000        0x0 build/default/debug/_ext/1688732426/rtos_hooks.o

.stack          0xa001e8e0      0x400
 .stack         0xa001e8e0      0x400 stack

.bss            0xa000043c    0x1dad0
 .bss           0xa000043c    0x19000 build/default/debug/_ext/628943767/heap_1.o
 .bss           0xa001943c     0x4000 build/default/debug/_ext/1952159421/sys_debug.o
 .bss           0xa001d43c      0x640 build/default/debug/_ext/1338673686/port.o
                0xa001d43c                xISRStack
 .bss           0xa001da7c      0x490 build/default/debug/_ext/207392127/sys_console_appio.o
                0xa001da7c                consAppIOData

.data           0xa001df0c       0xf0
 .data          0xa001df0c       0xa4 /home/john/MPLAB-X/XC32_Compiler/bin/bin/../../lib/gcc/pic32mx/4.8.3/../../../../pic32mx/lib/libc.a(_iob.o)
                0xa001df0c                _Files
                0xa001df10                _iob
 .data          0xa001dfb0       0x4c build/default/debug/_ext/207392127/sys_console_appio.o
                0xa001dfd8                consAppIODevDesc

.bss            0xa001dffc       0xb4
 .bss           0xa001dffc       0x44 /home/john/MPLAB-X/XC32_Compiler/bin/bin/../../lib/gcc/pic32mx/4.8.3/../../../../pic32mx/lib/libc.a(_iob.o)
                0xa001dffc                _sobuf
                0xa001e01c                _sibuf
                0xa001e03c                _outdone
 .bss           0xa001e040       0x28 build/default/debug/_ext/1458882252/timers.o
 .bss           0xa001e068       0x24 /home/john/MPLAB-X/XC32_Compiler/bin/bin/../../lib/gcc/pic32mx/4.8.3/../../../../pic32mx/lib/libpic32.a(sbrk.o)
                0xa001e084                _maxbrk
                0xa001e088                _minbrk
 .bss           0xa001e08c       0x18 build/default/debug/_ext/207392127/sys_console.o
 .bss           0xa001e0a4        0xc build/default/debug/_ext/1688732426/system_init.o
                0xa001e0a4                debugInit

.data           0xa001e0b0        0x4
 .data          0xa001e0b0        0x4 /home/john/MPLAB-X/XC32_Compiler/bin/bin/../../lib/gcc/pic32mx/4.8.3/../../../../pic32mx/lib/libdebug.a(appio.o)

.bss            0xa001e0b4        0x4
 .bss           0xa001e0b4        0x4 /home/john/MPLAB-X/XC32_Compiler/bin/bin/../../lib/gcc/pic32mx/4.8.3/../../../../pic32mx/lib/libc.a(buf.o)

.bss.errno      0xa001e0b8        0x4
 .bss.errno     0xa001e0b8        0x4 /home/john/MPLAB-X/XC32_Compiler/bin/bin/../../lib/gcc/pic32mx/4.8.3/../../../../pic32mx/lib/libc.a(errno.o)
                0xa001e0b8                errno

.bss            0xa001e0bc        0x4
 .bss           0xa001e0bc        0x4 /home/john/MPLAB-X/XC32_Compiler/bin/bin/../../lib/gcc/pic32mx/4.8.3/../../../../pic32mx/lib/libc.a(doscan_s.eo)

.text.vfprintf  0x9d000000     0x1c0c
 .text.vfprintf
                0x9d000000     0x1c0c /home/john/MPLAB-X/XC32_Compiler/bin/bin/../../lib/gcc/pic32mx/4.8.3/../../../../pic32mx/lib/libc.a(doprnt.o)
                0x9d000000                vfprintf

.text._DRV_USART_HardwareSetup
                0x9d001c0c     0x1138
 .text._DRV_USART_HardwareSetup
                0x9d001c0c     0x1138 build/default/debug/_ext/382300584/drv_usart.o
                0x9d001c0c                _DRV_USART_HardwareSetup

.text._vfscanf_s
                0x9d002d44      0x934
 .text._vfscanf_s
                0x9d002d44      0x934 /home/john/MPLAB-X/XC32_Compiler/bin/bin/../../lib/gcc/pic32mx/4.8.3/../../../../pic32mx/lib/libc.a(doscan_s.eo)
                0x9d002d44                _vfscanf_0
                0x9d002d44                _vfscanf_s

.text._vfprintf_s
                0x9d003678      0x840
 .text._vfprintf_s
                0x9d003678      0x840 /home/john/MPLAB-X/XC32_Compiler/bin/bin/../../lib/gcc/pic32mx/4.8.3/../../../../pic32mx/lib/libc.a(doprnt_s.eo)
                0x9d003678                _vfprintf_0
                0x9d003678                _vfprintf_s

.text           0x9d003eb8      0xd10
 .text          0x9d003eb8      0x464 /home/john/MPLAB-X/XC32_Compiler/bin/bin/../../lib/gcc/pic32mx/4.8.3/libgcc.a(_umoddi3.o)
                0x9d003eb8                __umoddi3
 .text          0x9d00431c      0x458 /home/john/MPLAB-X/XC32_Compiler/bin/bin/../../lib/gcc/pic32mx/4.8.3/libgcc.a(_udivdi3.o)
                0x9d00431c                __udivdi3
 .text          0x9d004774      0x454 build/default/debug/_ext/1338673686/port_asm.o
                0x9d004774                vPortTickInterruptHandler
                0x9d004920                vPortStartFirstTask
                0x9d0049e8                vPortYieldISR

.text.DRV_USART_Initialize
                0x9d004bc8      0x3b0
 .text.DRV_USART_Initialize
                0x9d004bc8      0x3b0 build/default/debug/_ext/382300584/drv_usart.o
                0x9d004bc8                DRV_USART_Initialize

.text.Console_APPIO_Tasks
                0x9d004f78      0x2c4
 .text.Console_APPIO_Tasks
                0x9d004f78      0x2c4 build/default/debug/_ext/207392127/sys_console_appio.o
                0x9d004f78                Console_APPIO_Tasks

.rodata         0x9d00523c      0x27c
 .rodata        0x9d00523c      0x27c build/default/debug/_ext/382300584/drv_usart.o

.text.fpsubadd  0x9d0054b8      0x278
 .text.fpsubadd
                0x9d0054b8      0x278 /home/john/MPLAB-X/XC32_Compiler/bin/bin/../../lib/gcc/pic32mx/4.8.3/../../../../pic32mx/lib/libm.a(fp32subadd.o)
                0x9d0054b8                fpsub
                0x9d0054b8                __subsf3
                0x9d0054c0                fpadd
                0x9d0054c0                __addsf3

.text.prvTimerTask
                0x9d005730      0x274
 .text.prvTimerTask
                0x9d005730      0x274 build/default/debug/_ext/1458882252/timers.o

.dinit          0x9d0059a4      0x270
 .dinit         0x9d0059a4      0x270 data_init

.text.xQueueGenericReceive
                0x9d005c14      0x24c
 .text.xQueueGenericReceive
                0x9d005c14      0x24c build/default/debug/_ext/1458882252/queue.o
                0x9d005c14                xQueueGenericReceive

.text.APPIO_DEBUG
                0x9d005e60      0x248
 .text.APPIO_DEBUG
                0x9d005e60      0x248 /home/john/MPLAB-X/XC32_Compiler/bin/bin/../../lib/gcc/pic32mx/4.8.3/../../../../pic32mx/lib/libdebug.a(appio.o)
                0x9d005e60                _mon_putc
                0x9d005edc                _appio_putword
                0x9d005efc                _mon_write
                0x9d005f3c                _mon_getc
                0x9d006024                _appio_gets
                0x9d006088                _appio_getword

.text.fp32div   0x9d0060a8      0x230
 .text.fp32div  0x9d0060a8      0x230 /home/john/MPLAB-X/XC32_Compiler/bin/bin/../../lib/gcc/pic32mx/4.8.3/../../../../pic32mx/lib/libm.a(fp32div.o)
                0x9d0060a8                __divsf3
                0x9d0060a8                fpdiv

.text.scale     0x9d0062d8      0x21c
 .text.scale    0x9d0062d8      0x21c /home/john/MPLAB-X/XC32_Compiler/bin/bin/../../lib/gcc/pic32mx/4.8.3/../../../../pic32mx/lib/libc.a(doprnt.o)

.text.__floatdisf
                0x9d0064f4      0x214
 .text.__floatdisf
                0x9d0064f4      0x214 /home/john/MPLAB-X/XC32_Compiler/bin/bin/../../lib/gcc/pic32mx/4.8.3/../../../../pic32mx/lib/libe.a(_floatdisf.o)
                0x9d0064f4                __floatdisf

.text.DRV_USART_TasksError
                0x9d006708      0x208
 .text.DRV_USART_TasksError
                0x9d006708      0x208 build/default/debug/_ext/382300584/drv_usart.o
                0x9d006708                DRV_USART_TasksError

.text.xQueueGenericSend
                0x9d006910      0x208
 .text.xQueueGenericSend
                0x9d006910      0x208 build/default/debug/_ext/1458882252/queue.o
                0x9d006910                xQueueGenericSend

.text.xTaskGenericCreate
                0x9d006b18      0x1c0
 .text.xTaskGenericCreate
                0x9d006b18      0x1c0 build/default/debug/_ext/1458882252/tasks.o
                0x9d006b18                xTaskGenericCreate

.text.fp32mul   0x9d006cd8      0x1bc
 .text.fp32mul  0x9d006cd8      0x1bc /home/john/MPLAB-X/XC32_Compiler/bin/bin/../../lib/gcc/pic32mx/4.8.3/../../../../pic32mx/lib/libm.a(fp32mul.o)
                0x9d006cd8                fpmul
                0x9d006cd8                __mulsf3

.DrvUsartInstance0_vector_text
                0x9d006e94      0x1b4
 .DrvUsartInstance0_vector_text
                0x9d006e94      0x1b4 build/default/debug/_ext/1688732426/system_interrupt_a.o

.text.fround    0x9d007048      0x1a4
 .text.fround   0x9d007048      0x1a4 /home/john/MPLAB-X/XC32_Compiler/bin/bin/../../lib/gcc/pic32mx/4.8.3/../../../../pic32mx/lib/libc.a(doprnt.o)

.text           0x9d0071ec      0x1a0
 .text          0x9d0071ec      0x1a0 /home/john/MPLAB-X/XC32_Compiler/bin/bin/../../lib/gcc/pic32mx/4.8.3/../../../../pic32mx/lib/libpic32.a(strcpy.o)
                0x9d0071ec                strcpy

.text.xTaskIncrementTick
                0x9d00738c      0x19c
 .text.xTaskIncrementTick
                0x9d00738c      0x19c build/default/debug/_ext/1458882252/tasks.o
                0x9d00738c                xTaskIncrementTick

.text._sbrk_init
                0x9d007528      0x194
 .text._sbrk_init
                0x9d007528      0x194 /home/john/MPLAB-X/XC32_Compiler/bin/bin/../../lib/gcc/pic32mx/4.8.3/../../../../pic32mx/lib/libpic32.a(sbrk.o)
                0x9d007528                _sbrk_init

.text._filbuf   0x9d0076bc      0x188
 .text._filbuf  0x9d0076bc      0x188 /home/john/MPLAB-X/XC32_Compiler/bin/bin/../../lib/gcc/pic32mx/4.8.3/../../../../pic32mx/lib/libc.a(filbuf.o)
                0x9d0076bc                _filbuf

.text           0x9d007844      0x2d0
 .text          0x9d007844      0x168 /home/john/MPLAB-X/XC32_Compiler/bin/bin/../../lib/gcc/pic32mx/4.8.3/../../../../pic32mx/lib/libpic32.a(memcpy.o)
                0x9d007844                memcpy
 .text          0x9d0079ac      0x168 /home/john/MPLAB-X/XC32_Compiler/bin/bin/../../lib/gcc/pic32mx/4.8.3/../../../../pic32mx/lib/libpic32.a(strlen.o)
                0x9d0079ac                strlen

.text.read      0x9d007b14      0x158
 .text.read     0x9d007b14      0x158 /home/john/MPLAB-X/XC32_Compiler/bin/bin/../../lib/gcc/pic32mx/4.8.3/../../../../pic32mx/lib/libpic32.a(read.o)
                0x9d007b14                read

.text.xTaskResumeAll
                0x9d007c6c      0x154
 .text.xTaskResumeAll
                0x9d007c6c      0x154 build/default/debug/_ext/1458882252/tasks.o
                0x9d007c6c                xTaskResumeAll

.rodata         0x9d007dc0      0x154
 .rodata        0x9d007dc0      0x154 build/default/debug/_ext/1688732426/system_exceptions.o

.text.fputc     0x9d007f14      0x144
 .text.fputc    0x9d007f14      0x144 /home/john/MPLAB-X/XC32_Compiler/bin/bin/../../lib/gcc/pic32mx/4.8.3/../../../../pic32mx/lib/libc.a(_fputc_simple.o)
                0x9d007f14                fputc

.text.vTaskPriorityInherit
                0x9d008058      0x12c
 .text.vTaskPriorityInherit
                0x9d008058      0x12c build/default/debug/_ext/1458882252/tasks.o
                0x9d008058                vTaskPriorityInherit

.text._flsbuf   0x9d008184      0x12c
 .text._flsbuf  0x9d008184      0x12c /home/john/MPLAB-X/XC32_Compiler/bin/bin/../../lib/gcc/pic32mx/4.8.3/../../../../pic32mx/lib/libc.a(_flsbuf_simple.o)
                0x9d008184                _flsbuf

.text.prvUnlockQueue
                0x9d0082b0      0x104
 .text.prvUnlockQueue
                0x9d0082b0      0x104 build/default/debug/_ext/1458882252/queue.o

.text.prvSampleTimeNow
                0x9d0083b4      0x104
 .text.prvSampleTimeNow
                0x9d0083b4      0x104 build/default/debug/_ext/1458882252/timers.o

.text.fgetc     0x9d0084b8      0x104
 .text.fgetc    0x9d0084b8      0x104 /home/john/MPLAB-X/XC32_Compiler/bin/bin/../../lib/gcc/pic32mx/4.8.3/../../../../pic32mx/lib/libc.a(fgetc.o)
                0x9d0084b8                fgetc

.rodata         0x9d0085bc      0x104
 .rodata        0x9d0085bc      0x104 /home/john/MPLAB-X/XC32_Compiler/bin/bin/../../lib/gcc/pic32mx/4.8.3/../../../../pic32mx/lib/libc.a(ctype.o)
                0x9d0085bc                _ctype

.text.setvbuf   0x9d0086c0      0x100
 .text.setvbuf  0x9d0086c0      0x100 /home/john/MPLAB-X/XC32_Compiler/bin/bin/../../lib/gcc/pic32mx/4.8.3/../../../../pic32mx/lib/libc.a(setbuf.o)
                0x9d0086c0                setvbuf

.text.prvCopyDataToQueue
                0x9d0087c0       0xfc
 .text.prvCopyDataToQueue
                0x9d0087c0       0xfc build/default/debug/_ext/1458882252/queue.o

.text.SYS_DEBUG_Print
                0x9d0088bc       0xf8
 .text.SYS_DEBUG_Print
                0x9d0088bc       0xf8 build/default/debug/_ext/1952159421/sys_debug.o
                0x9d0088bc                SYS_DEBUG_Print

.text.xTaskPriorityDisinherit
                0x9d0089b4       0xf8
 .text.xTaskPriorityDisinherit
                0x9d0089b4       0xf8 build/default/debug/_ext/1458882252/tasks.o
                0x9d0089b4                xTaskPriorityDisinherit

.text.xQueueGenericSendFromISR
                0x9d008aac       0xe8
 .text.xQueueGenericSendFromISR
                0x9d008aac       0xe8 build/default/debug/_ext/1458882252/queue.o
                0x9d008aac                xQueueGenericSendFromISR

.rodata         0x9d008b98       0xe8
 .rodata        0x9d008b98       0xe8 /home/john/MPLAB-X/XC32_Compiler/bin/bin/../../lib/gcc/pic32mx/4.8.3/../../../../pic32mx/lib/libc.a(doprnt.o)

.text.vTaskSwitchContext
                0x9d008c80       0xe0
 .text.vTaskSwitchContext
                0x9d008c80       0xe0 build/default/debug/_ext/1458882252/tasks.o
                0x9d008c80                vTaskSwitchContext

.text.SYS_DEVCON_PerformanceConfig
                0x9d008d60       0xdc
 .text.SYS_DEVCON_PerformanceConfig
                0x9d008d60       0xdc build/default/debug/_ext/1921105363/sys_devcon_pic32mx.o
                0x9d008d60                SYS_DEVCON_PerformanceConfig

.text.general_exception
                0x9d008e3c       0xdc
 .text.general_exception
                0x9d008e3c       0xdc /home/john/MPLAB-X/XC32_Compiler/bin/bin/../../lib/gcc/pic32mx/4.8.3/../../../../pic32mx/lib/libpic32.a(general-exception.o)
                0x9d008e3c                _general_exception_context

.text.SYS_Initialize
                0x9d008f18       0xc8
 .text.SYS_Initialize
                0x9d008f18       0xc8 build/default/debug/_ext/1688732426/system_init.o
                0x9d008f18                SYS_Initialize

.text._sbrk     0x9d008fe0       0xc8
 .text._sbrk    0x9d008fe0       0xc8 /home/john/MPLAB-X/XC32_Compiler/bin/bin/../../lib/gcc/pic32mx/4.8.3/../../../../pic32mx/lib/libpic32.a(sbrk.o)
                0x9d008fe0                _sbrk

.text.xQueueGenericReset
                0x9d0090a8       0xc4
 .text.xQueueGenericReset
                0x9d0090a8       0xc4 build/default/debug/_ext/1458882252/queue.o
                0x9d0090a8                xQueueGenericReset

.text.pvPortMalloc
                0x9d00916c       0xc0
 .text.pvPortMalloc
                0x9d00916c       0xc0 build/default/debug/_ext/628943767/heap_1.o
                0x9d00916c                pvPortMalloc

.rodata         0x9d009230       0xc0
 .rodata        0x9d009230       0xc0 /home/john/MPLAB-X/XC32_Compiler/bin/bin/../../lib/gcc/pic32mx/4.8.3/../../../../pic32mx/lib/libc.a(doprnt_s.eo)

.text.xTaskRemoveFromEventList
                0x9d0092f0       0xbc
 .text.xTaskRemoveFromEventList
                0x9d0092f0       0xbc build/default/debug/_ext/1458882252/tasks.o
                0x9d0092f0                xTaskRemoveFromEventList

.text.Console_APPIO_Write
                0x9d0093ac       0xb4
 .text.Console_APPIO_Write
                0x9d0093ac       0xb4 build/default/debug/_ext/207392127/sys_console_appio.o
                0x9d0093ac                Console_APPIO_Write

.text.Console_APPIO_Read
                0x9d009460       0xb4
 .text.Console_APPIO_Read
                0x9d009460       0xb4 build/default/debug/_ext/207392127/sys_console_appio.o
                0x9d009460                Console_APPIO_Read

.text.prvInitialiseTCBVariables
                0x9d009514       0xb4
 .text.prvInitialiseTCBVariables
                0x9d009514       0xb4 build/default/debug/_ext/1458882252/tasks.o
                0x9d009514                prvInitialiseTCBVariables

.text.DRV_USART_TasksTransmit
                0x9d0095c8       0xac
 .text.DRV_USART_TasksTransmit
                0x9d0095c8       0xac build/default/debug/_ext/382300584/drv_usart.o
                0x9d0095c8                DRV_USART_TasksTransmit

.text.DRV_USART_TasksReceive
                0x9d009674       0xac
 .text.DRV_USART_TasksReceive
                0x9d009674       0xac build/default/debug/_ext/382300584/drv_usart.o
                0x9d009674                DRV_USART_TasksReceive

.text           0x9d009720       0xa8
 .text          0x9d009720       0xa8 /home/john/MPLAB-X/XC32_Compiler/bin/bin/../../lib/gcc/pic32mx/4.8.3/../../../../pic32mx/lib/libpic32.a(memset.o)
                0x9d009720                memset

.text.range     0x9d0097c8       0xa8
 .text.range    0x9d0097c8       0xa8 /home/john/MPLAB-X/XC32_Compiler/bin/bin/../../lib/gcc/pic32mx/4.8.3/../../../../pic32mx/lib/libc.a(doscan_s.eo)

.text.atoi      0x9d009870       0xa8
 .text.atoi     0x9d009870       0xa8 /home/john/MPLAB-X/XC32_Compiler/bin/bin/../../lib/gcc/pic32mx/4.8.3/../../../../pic32mx/lib/libc.a(atoi.o)
                0x9d009870                atoi

.text.SYS_PORTS_Initialize
                0x9d009918       0xa4
 .text.SYS_PORTS_Initialize
                0x9d009918       0xa4 build/default/debug/_ext/822048611/sys_ports_static.o
                0x9d009918                SYS_PORTS_Initialize

.text.vTaskPlaceOnEventListRestricted
                0x9d0099bc       0xa0
 .text.vTaskPlaceOnEventListRestricted
                0x9d0099bc       0xa0 build/default/debug/_ext/1458882252/tasks.o
                0x9d0099bc                vTaskPlaceOnEventListRestricted

.text.xTaskCheckForTimeOut
                0x9d009a5c       0xa0
 .text.xTaskCheckForTimeOut
                0x9d009a5c       0xa0 build/default/debug/_ext/1458882252/tasks.o
                0x9d009a5c                xTaskCheckForTimeOut

.text.fflush    0x9d009afc       0xa0
 .text.fflush   0x9d009afc       0xa0 /home/john/MPLAB-X/XC32_Compiler/bin/bin/../../lib/gcc/pic32mx/4.8.3/../../../../pic32mx/lib/libc.a(fflush.o)
                0x9d009afc                fflush

.text.write     0x9d009b9c       0x9c
 .text.write    0x9d009b9c       0x9c /home/john/MPLAB-X/XC32_Compiler/bin/bin/../../lib/gcc/pic32mx/4.8.3/../../../../pic32mx/lib/libpic32.a(write.o)
                0x9d009b9c                write

.text.fpcmp     0x9d009c38       0x9c
 .text.fpcmp    0x9d009c38       0x9c /home/john/MPLAB-X/XC32_Compiler/bin/bin/../../lib/gcc/pic32mx/4.8.3/../../../../pic32mx/lib/libm.a(fpcmp.o)
                0x9d009c38                __ltsf2
                0x9d009c38                __eqsf2
                0x9d009c38                __lesf2
                0x9d009c38                __gtsf2
                0x9d009c38                __nesf2
                0x9d009c38                fpcmp
                0x9d009c38                __gesf2

.text.APP_Initialize
                0x9d009cd4       0x98
 .text.APP_Initialize
                0x9d009cd4       0x98 build/default/debug/_ext/1360937237/app.o
                0x9d009cd4                APP_Initialize

.text.vTaskStartScheduler
                0x9d009d6c       0x98
 .text.vTaskStartScheduler
                0x9d009d6c       0x98 build/default/debug/_ext/1458882252/tasks.o
                0x9d009d6c                vTaskStartScheduler

.text.xTimerCreate
                0x9d009e04       0x98
 .text.xTimerCreate
                0x9d009e04       0x98 build/default/debug/_ext/1458882252/timers.o
                0x9d009e04                xTimerCreate

.text.xQueueGenericCreate
                0x9d009e9c       0x94
 .text.xQueueGenericCreate
                0x9d009e9c       0x94 build/default/debug/_ext/1458882252/queue.o
                0x9d009e9c                xQueueGenericCreate

.text.vTaskPlaceOnEventList
                0x9d009f30       0x94
 .text.vTaskPlaceOnEventList
                0x9d009f30       0x94 build/default/debug/_ext/1458882252/tasks.o
                0x9d009f30                vTaskPlaceOnEventList

.text.xTimerGenericCommand
                0x9d009fc4       0x94
 .text.xTimerGenericCommand
                0x9d009fc4       0x94 build/default/debug/_ext/1458882252/timers.o
                0x9d009fc4                xTimerGenericCommand

.text.prvInitialiseTaskLists
                0x9d00a058       0x90
 .text.prvInitialiseTaskLists
                0x9d00a058       0x90 build/default/debug/_ext/1458882252/tasks.o
                0x9d00a058                prvInitialiseTaskLists

.text.vTaskDelay
                0x9d00a0e8       0x90
 .text.vTaskDelay
                0x9d00a0e8       0x90 build/default/debug/_ext/1458882252/tasks.o
                0x9d00a0e8                vTaskDelay

.text.prvCheckTasksWaitingTermination
                0x9d00a178       0x90
 .text.prvCheckTasksWaitingTermination
                0x9d00a178       0x90 build/default/debug/_ext/1458882252/tasks.o
                0x9d00a178                prvCheckTasksWaitingTermination

.text.SYS_CONSOLE_Write
                0x9d00a208       0x8c
 .text.SYS_CONSOLE_Write
                0x9d00a208       0x8c build/default/debug/_ext/207392127/sys_console.o
                0x9d00a208                SYS_CONSOLE_Write

.text.libm      0x9d00a294       0x88
 .text.libm     0x9d00a294       0x88 /home/john/MPLAB-X/XC32_Compiler/bin/bin/../../lib/gcc/pic32mx/4.8.3/../../../../pic32mx/lib/libm.a(fpfrexp.o)
                0x9d00a294                fpfrexp
                0x9d00a294                frexpf

.text.vQueueWaitForMessageRestricted
                0x9d00a31c       0x84
 .text.vQueueWaitForMessageRestricted
                0x9d00a31c       0x84 build/default/debug/_ext/1458882252/queue.o
                0x9d00a31c                vQueueWaitForMessageRestricted

.text.prvAllocateTCBAndStack
                0x9d00a3a0       0x84
 .text.prvAllocateTCBAndStack
                0x9d00a3a0       0x84 build/default/debug/_ext/1458882252/tasks.o
                0x9d00a3a0                prvAllocateTCBAndStack

.text._DRV_USART_ByteTransmitTasks
                0x9d00a424       0x80
 .text._DRV_USART_ByteTransmitTasks
                0x9d00a424       0x80 build/default/debug/_ext/382300584/drv_usart.o
                0x9d00a424                _DRV_USART_ByteTransmitTasks

.text.xQueueCreateMutex
                0x9d00a4a4       0x80
 .text.xQueueCreateMutex
                0x9d00a4a4       0x80 build/default/debug/_ext/1458882252/queue.o
                0x9d00a4a4                xQueueCreateMutex

.text.SYS_Tasks
                0x9d00a524       0x80
 .text.SYS_Tasks
                0x9d00a524       0x80 build/default/debug/_ext/1688732426/system_tasks.o
                0x9d00a524                SYS_Tasks

.text.fptoul    0x9d00a5a4       0x7c
 .text.fptoul   0x9d00a5a4       0x7c /home/john/MPLAB-X/XC32_Compiler/bin/bin/../../lib/gcc/pic32mx/4.8.3/../../../../pic32mx/lib/libm.a(fptoul.o)
                0x9d00a5a4                __fixunssfsi
                0x9d00a5a4                fptoul
                0x9d00a5a4                fptoui

.text.SYS_CONSOLE_Initialize
                0x9d00a620       0x78
 .text.SYS_CONSOLE_Initialize
                0x9d00a620       0x78 build/default/debug/_ext/207392127/sys_console.o
                0x9d00a620                SYS_CONSOLE_Initialize

.text._DRV_USART_ByteReceiveTasks
                0x9d00a698       0x74
 .text._DRV_USART_ByteReceiveTasks
                0x9d00a698       0x74 build/default/debug/_ext/382300584/drv_usart.o
                0x9d00a698                _DRV_USART_ByteReceiveTasks

.text._DRV_USART_ByteErrorTasks
                0x9d00a70c       0x74
 .text._DRV_USART_ByteErrorTasks
                0x9d00a70c       0x74 build/default/debug/_ext/382300584/drv_usart.o
                0x9d00a70c                _DRV_USART_ByteErrorTasks

.text.prvInsertTimerInActiveList
                0x9d00a780       0x74
 .text.prvInsertTimerInActiveList
                0x9d00a780       0x74 build/default/debug/_ext/1458882252/timers.o

.text.prvCheckForValidListAndQueue
                0x9d00a7f4       0x74
 .text.prvCheckForValidListAndQueue
                0x9d00a7f4       0x74 build/default/debug/_ext/1458882252/timers.o

.text.ungetc    0x9d00a868       0x74
 .text.ungetc   0x9d00a868       0x74 /home/john/MPLAB-X/XC32_Compiler/bin/bin/../../lib/gcc/pic32mx/4.8.3/../../../../pic32mx/lib/libc.a(ungetc.o)
                0x9d00a868                ungetc

.text.prvAddCurrentTaskToDelayedList
                0x9d00a8dc       0x70
 .text.prvAddCurrentTaskToDelayedList
                0x9d00a8dc       0x70 build/default/debug/_ext/1458882252/tasks.o
                0x9d00a8dc                prvAddCurrentTaskToDelayedList

.text.vApplicationSetupTickTimerInterrupt
                0x9d00a94c       0x6c
 .text.vApplicationSetupTickTimerInterrupt
                0x9d00a94c       0x6c build/default/debug/_ext/1338673686/port.o
                0x9d00a94c                vApplicationSetupTickTimerInterrupt

.text.vTaskExitCritical
                0x9d00a9b8       0x68
 .text.vTaskExitCritical
                0x9d00a9b8       0x68 build/default/debug/_ext/1458882252/tasks.o
                0x9d00a9b8                vTaskExitCritical

.rodata         0x9d00aa20       0x68
 .rodata        0x9d00aa20       0x68 /home/john/MPLAB-X/XC32_Compiler/bin/bin/../../lib/gcc/pic32mx/4.8.3/../../../../pic32mx/lib/libc.a(powersf.o)
                0x9d00aa20                _npowers_f
                0x9d00aa54                _powers_f

.text._general_exception_handler
                0x9d00aa88       0x64
 .text._general_exception_handler
                0x9d00aa88       0x64 build/default/debug/_ext/1688732426/system_exceptions.o
                0x9d00aa88                _general_exception_handler

.text.xTimerCreateTimerTask
                0x9d00aaec       0x60
 .text.xTimerCreateTimerTask
                0x9d00aaec       0x60 build/default/debug/_ext/1458882252/timers.o
                0x9d00aaec                xTimerCreateTimerTask

.text.wspace    0x9d00ab4c       0x60
 .text.wspace   0x9d00ab4c       0x60 /home/john/MPLAB-X/XC32_Compiler/bin/bin/../../lib/gcc/pic32mx/4.8.3/../../../../pic32mx/lib/libc.a(doscan_s.eo)

.text.sitofp    0x9d00abac       0x60
 .text.sitofp   0x9d00abac       0x60 /home/john/MPLAB-X/XC32_Compiler/bin/bin/../../lib/gcc/pic32mx/4.8.3/../../../../pic32mx/lib/libm.a(sitofp.o)
                0x9d00abac                __floatsisf
                0x9d00abac                sitofp
                0x9d00abac                litofp

.text.vListInsert
                0x9d00ac0c       0x5c
 .text.vListInsert
                0x9d00ac0c       0x5c build/default/debug/_ext/1458882252/list.o
                0x9d00ac0c                vListInsert

.text.xPortStartScheduler
                0x9d00ac68       0x5c
 .text.xPortStartScheduler
                0x9d00ac68       0x5c build/default/debug/_ext/1338673686/port.o
                0x9d00ac68                xPortStartScheduler

.text.vsnprintf
                0x9d00acc4       0x5c
 .text.vsnprintf
                0x9d00acc4       0x5c /home/john/MPLAB-X/XC32_Compiler/bin/bin/../../lib/gcc/pic32mx/4.8.3/../../../../pic32mx/lib/libc.a(vsnprintf.o)
                0x9d00acc4                vsnprintf

.text._bufallo  0x9d00ad20       0x5c
 .text._bufallo
                0x9d00ad20       0x5c /home/john/MPLAB-X/XC32_Compiler/bin/bin/../../lib/gcc/pic32mx/4.8.3/../../../../pic32mx/lib/libc.a(buf.o)
                0x9d00ad20                _bufallo

.text.SYS_DEVCON_SystemUnlock
                0x9d00ad7c       0x58
 .text.SYS_DEVCON_SystemUnlock
                0x9d00ad7c       0x58 build/default/debug/_ext/1921105363/sys_devcon.o
                0x9d00ad7c                SYS_DEVCON_SystemUnlock

.text.SYS_INT_SourceDisable
                0x9d00add4       0x58
 .text.SYS_INT_SourceDisable
                0x9d00add4       0x58 build/default/debug/_ext/993332121/sys_int_pic32.o
                0x9d00add4                SYS_INT_SourceDisable

.text.SYS_CLK_Initialize
                0x9d00ae2c       0x58
 .text.SYS_CLK_Initialize
                0x9d00ae2c       0x58 build/default/debug/_ext/639803181/sys_clk_static.o
                0x9d00ae2c                SYS_CLK_Initialize

.text.main_entry
                0x9d00ae84       0x54
 .text.main_entry
                0x9d00ae84       0x54 /home/john/MPLAB-X/XC32_Compiler/bin/bin/../../lib/gcc/pic32mx/4.8.3/../../../../pic32mx/lib/./proc/32MX795F512L/crt0_mips32r2.o
                0x9d00aeb8                __crt0_exit

.text.pxPortInitialiseStack
                0x9d00aed8       0x54
 .text.pxPortInitialiseStack
                0x9d00aed8       0x54 build/default/debug/_ext/1338673686/port.o
                0x9d00aed8                pxPortInitialiseStack

.text.vPortIncrementTick
                0x9d00af2c       0x54
 .text.vPortIncrementTick
                0x9d00af2c       0x54 build/default/debug/_ext/1338673686/port.o
                0x9d00af2c                vPortIncrementTick

.text.prvCopyDataFromQueue
                0x9d00af80       0x50
 .text.prvCopyDataFromQueue
                0x9d00af80       0x50 build/default/debug/_ext/1458882252/queue.o

.text.vTaskEnterCritical
                0x9d00afd0       0x50
 .text.vTaskEnterCritical
                0x9d00afd0       0x50 build/default/debug/_ext/1458882252/tasks.o
                0x9d00afd0                vTaskEnterCritical

.text.sbrk      0x9d00b020       0x50
 .text.sbrk     0x9d00b020       0x50 /home/john/MPLAB-X/XC32_Compiler/bin/bin/../../lib/gcc/pic32mx/4.8.3/../../../../pic32mx/lib/libpic32.a(sbrk.o)
                0x9d00b020                sbrk

.text.SYS_CONSOLE_Tasks
                0x9d00b070       0x4c
 .text.SYS_CONSOLE_Tasks
                0x9d00b070       0x4c build/default/debug/_ext/207392127/sys_console.o
                0x9d00b070                SYS_CONSOLE_Tasks

.text.Console_APPIO_Flush
                0x9d00b0bc       0x4c
 .text.Console_APPIO_Flush
                0x9d00b0bc       0x4c build/default/debug/_ext/207392127/sys_console_appio.o
                0x9d00b0bc                Console_APPIO_Flush

.rodata         0x9d00b108       0x4c
 .rodata        0x9d00b108       0x4c build/default/debug/_ext/1688732426/system_init.o
                0x9d00b108                sysDevconInit
                0x9d00b10c                drvUsart0InitData

.text           0x9d00b154       0x4c
 .text          0x9d00b154       0x4c /home/john/MPLAB-X/XC32_Compiler/bin/bin/../../lib/gcc/pic32mx/4.8.3/libgcc.a(floatunsisf.o)
                0x9d00b154                __floatunsisf

.text.SYS_DEVCON_SystemLock
                0x9d00b1a0       0x48
 .text.SYS_DEVCON_SystemLock
                0x9d00b1a0       0x48 build/default/debug/_ext/1921105363/sys_devcon.o
                0x9d00b1a0                SYS_DEVCON_SystemLock

.text._bootstrap_exception_handler
                0x9d00b1e8       0x48
 .text._bootstrap_exception_handler
                0x9d00b1e8       0x48 /home/john/MPLAB-X/XC32_Compiler/bin/bin/../../lib/gcc/pic32mx/4.8.3/../../../../pic32mx/lib/libpic32.a(default-bootstrap-exception-handler.o)
                0x9d00b1e8                _bootstrap_exception_handler

.vector_default
                0x9d00b230       0x48
 .vector_default
                0x9d00b230       0x48 /home/john/MPLAB-X/XC32_Compiler/bin/bin/../../lib/gcc/pic32mx/4.8.3/../../../../pic32mx/lib/libpic32.a(defaultinterrupt.o)
                0x9d00b230                _DefaultInterrupt

.text.uxListRemove
                0x9d00b278       0x44
 .text.uxListRemove
                0x9d00b278       0x44 build/default/debug/_ext/1458882252/list.o
                0x9d00b278                uxListRemove

.text           0x9d00b2bc       0x44
 .text          0x9d00b2bc       0x44 /home/john/MPLAB-X/XC32_Compiler/bin/bin/../../lib/gcc/pic32mx/4.8.3/../../../../pic32mx/lib/pic32_software_reset.o
                0x9d00b2bc                __pic32_software_reset

.text.prvIdleTask
                0x9d00b300       0x40
 .text.prvIdleTask
                0x9d00b300       0x40 build/default/debug/_ext/1458882252/tasks.o
                0x9d00b300                prvIdleTask

.text._printf_s
                0x9d00b340       0x40
 .text._printf_s
                0x9d00b340       0x40 /home/john/MPLAB-X/XC32_Compiler/bin/bin/../../lib/gcc/pic32mx/4.8.3/../../../../pic32mx/lib/libc.a(printf_s.eo)
                0x9d00b340                _printf_s
                0x9d00b340                _printf_0

.text._scanf_s  0x9d00b380       0x40
 .text._scanf_s
                0x9d00b380       0x40 /home/john/MPLAB-X/XC32_Compiler/bin/bin/../../lib/gcc/pic32mx/4.8.3/../../../../pic32mx/lib/libc.a(scanf_s.eo)
                0x9d00b380                _scanf_s
                0x9d00b380                _scanf_0

.text.OSAL_MUTEX_Create
                0x9d00b3c0       0x3c
 .text.OSAL_MUTEX_Create
                0x9d00b3c0       0x3c build/default/debug/_ext/1964585049/osal_freertos.o
                0x9d00b3c0                OSAL_MUTEX_Create

.text.SYS_DEBUG_Message
                0x9d00b3fc       0x3c
 .text.SYS_DEBUG_Message
                0x9d00b3fc       0x3c build/default/debug/_ext/1952159421/sys_debug.o
                0x9d00b3fc                SYS_DEBUG_Message

.text.uxPortSetInterruptMaskFromISR
                0x9d00b438       0x3c
 .text.uxPortSetInterruptMaskFromISR
                0x9d00b438       0x3c build/default/debug/_ext/1338673686/port.o
                0x9d00b438                uxPortSetInterruptMaskFromISR

.text.IntHandlerDrvUsartInstance0
                0x9d00b474       0x3c
 .text.IntHandlerDrvUsartInstance0
                0x9d00b474       0x3c build/default/debug/_ext/1688732426/system_interrupt.o
                0x9d00b474                IntHandlerDrvUsartInstance0

.text.prvResetNextTaskUnblockTime
                0x9d00b4b0       0x38
 .text.prvResetNextTaskUnblockTime
                0x9d00b4b0       0x38 build/default/debug/_ext/1458882252/tasks.o
                0x9d00b4b0                prvResetNextTaskUnblockTime

.text._SYS_Tasks
                0x9d00b4e8       0x34
 .text._SYS_Tasks
                0x9d00b4e8       0x34 build/default/debug/_ext/1688732426/system_tasks.o

.text.popQueue  0x9d00b51c       0x30
 .text.popQueue
                0x9d00b51c       0x30 build/default/debug/_ext/207392127/sys_console_appio.o

.text.SYS_DEBUG_Initialize
                0x9d00b54c       0x30
 .text.SYS_DEBUG_Initialize
                0x9d00b54c       0x30 build/default/debug/_ext/1952159421/sys_debug.o
                0x9d00b54c                SYS_DEBUG_Initialize

.text.vListInsertEnd
                0x9d00b57c       0x30
 .text.vListInsertEnd
                0x9d00b57c       0x30 build/default/debug/_ext/1458882252/list.o
                0x9d00b57c                vListInsertEnd

.text.prvDeleteTCB
                0x9d00b5ac       0x30
 .text.prvDeleteTCB
                0x9d00b5ac       0x30 build/default/debug/_ext/1458882252/tasks.o
                0x9d00b5ac                prvDeleteTCB

.text.Console_APPIO_ReadC
                0x9d00b5dc       0x2c
 .text.Console_APPIO_ReadC
                0x9d00b5dc       0x2c build/default/debug/_ext/207392127/sys_console_appio.o
                0x9d00b5dc                Console_APPIO_ReadC

.text.prvTaskExitError
                0x9d00b608       0x2c
 .text.prvTaskExitError
                0x9d00b608       0x2c build/default/debug/_ext/1338673686/port.o

.text.vApplicationStackOverflowHook
                0x9d00b634       0x2c
 .text.vApplicationStackOverflowHook
                0x9d00b634       0x2c build/default/debug/_ext/1688732426/rtos_hooks.o
                0x9d00b634                vApplicationStackOverflowHook

.text.vApplicationMallocFailedHook
                0x9d00b660       0x2c
 .text.vApplicationMallocFailedHook
                0x9d00b660       0x2c build/default/debug/_ext/1688732426/rtos_hooks.o
                0x9d00b660                vApplicationMallocFailedHook

.text._stub_sbd_memlayout
                0x9d00b68c       0x2c
 .text._stub_sbd_memlayout
                0x9d00b68c       0x2c /home/john/MPLAB-X/XC32_Compiler/bin/bin/../../lib/gcc/pic32mx/4.8.3/../../../../pic32mx/lib/libpic32.a(sbrk.o)
                0x9d00b68c                _stub_sbd_memlayout
                0x9d00b68c                _sbd_memlayout

.text.vTimerCallback1
                0x9d00b6b8       0x28
 .text.vTimerCallback1
                0x9d00b6b8       0x28 build/default/debug/_ext/1360937237/app.o
                0x9d00b6b8                vTimerCallback1

.text.Console_APPIO_RegisterCallback
                0x9d00b6e0       0x28
 .text.Console_APPIO_RegisterCallback
                0x9d00b6e0       0x28 build/default/debug/_ext/207392127/sys_console_appio.o
                0x9d00b6e0                Console_APPIO_RegisterCallback

.text.pvTaskIncrementMutexHeldCount
                0x9d00b708       0x28
 .text.pvTaskIncrementMutexHeldCount
                0x9d00b708       0x28 build/default/debug/_ext/1458882252/tasks.o
                0x9d00b708                pvTaskIncrementMutexHeldCount

.text.appInitTimerMQ
                0x9d00b730       0x24
 .text.appInitTimerMQ
                0x9d00b730       0x24 build/default/debug/_ext/1360937237/app_public.o
                0x9d00b730                appInitTimerMQ

.text.tolower   0x9d00b754       0x24
 .text.tolower  0x9d00b754       0x24 /home/john/MPLAB-X/XC32_Compiler/bin/bin/../../lib/gcc/pic32mx/4.8.3/../../../../pic32mx/lib/libc.a(ctypef.o)
                0x9d00b754                tolower

.text.APP_Tasks
                0x9d00b778       0x20
 .text.APP_Tasks
                0x9d00b778       0x20 build/default/debug/_ext/1360937237/app.o
                0x9d00b778                APP_Tasks

.text.main      0x9d00b798       0x20
 .text.main     0x9d00b798       0x20 build/default/debug/_ext/1360937237/main.o
                0x9d00b798                main

.text.vListInitialise
                0x9d00b7b8       0x20
 .text.vListInitialise
                0x9d00b7b8       0x20 build/default/debug/_ext/1458882252/list.o
                0x9d00b7b8                vListInitialise

.text.xTaskGetSchedulerState
                0x9d00b7d8       0x20
 .text.xTaskGetSchedulerState
                0x9d00b7d8       0x20 build/default/debug/_ext/1458882252/tasks.o
                0x9d00b7d8                xTaskGetSchedulerState

.text.SYS_DEVCON_JTAGDisable
                0x9d00b7f8       0x1c
 .text.SYS_DEVCON_JTAGDisable
                0x9d00b7f8       0x1c build/default/debug/_ext/1921105363/sys_devcon.o
                0x9d00b7f8                SYS_DEVCON_JTAGDisable

.text.vPortClearInterruptMaskFromISR
                0x9d00b814       0x1c
 .text.vPortClearInterruptMaskFromISR
                0x9d00b814       0x1c build/default/debug/_ext/1338673686/port.o
                0x9d00b814                vPortClearInterruptMaskFromISR

.text.SYS_INT_Initialize
                0x9d00b830       0x18
 .text.SYS_INT_Initialize
                0x9d00b830       0x18 build/default/debug/_ext/993332121/sys_int_pic32.o
                0x9d00b830                SYS_INT_Initialize

.text._APP_Tasks
                0x9d00b848       0x18
 .text._APP_Tasks
                0x9d00b848       0x18 build/default/debug/_ext/1688732426/system_tasks.o

.rodata         0x9d00b860       0x18
 .rodata        0x9d00b860       0x18 build/default/debug/_ext/1688732426/system_tasks.o

.text           0x9d00b878       0x18
 .text          0x9d00b878       0x18 /home/john/MPLAB-X/XC32_Compiler/bin/bin/../../lib/gcc/pic32mx/4.8.3/../../../../pic32mx/lib/libpic32.a(default-nmi-handler.o)
                0x9d00b878                _nmi_handler

.text.SYS_DEVCON_Initialize
                0x9d00b890       0x14
 .text.SYS_DEVCON_Initialize
                0x9d00b890       0x14 build/default/debug/_ext/1921105363/sys_devcon.o
                0x9d00b890                SYS_DEVCON_Initialize

.text.vTaskSuspendAll
                0x9d00b8a4       0x14
 .text.vTaskSuspendAll
                0x9d00b8a4       0x14 build/default/debug/_ext/1458882252/tasks.o
                0x9d00b8a4                vTaskSuspendAll

.text.vTaskSetTimeOutState
                0x9d00b8b8       0x14
 .text.vTaskSetTimeOutState
                0x9d00b8b8       0x14 build/default/debug/_ext/1458882252/tasks.o
                0x9d00b8b8                vTaskSetTimeOutState

.text._buffree  0x9d00b8cc       0x14
 .text._buffree
                0x9d00b8cc       0x14 /home/john/MPLAB-X/XC32_Compiler/bin/bin/../../lib/gcc/pic32mx/4.8.3/../../../../pic32mx/lib/libc.a(buf.o)
                0x9d00b8cc                _buffree

.text.Console_APPIO_Status
                0x9d00b8e0       0x10
 .text.Console_APPIO_Status
                0x9d00b8e0       0x10 build/default/debug/_ext/207392127/sys_console_appio.o
                0x9d00b8e0                Console_APPIO_Status

.text.vTaskMissedYield
                0x9d00b8f0       0x10
 .text.vTaskMissedYield
                0x9d00b8f0       0x10 build/default/debug/_ext/1458882252/tasks.o
                0x9d00b8f0                vTaskMissedYield

.text.__exception_handler_break
                0x9d00b900        0xc
 .text.__exception_handler_break
                0x9d00b900        0xc /home/john/MPLAB-X/XC32_Compiler/bin/bin/../../lib/gcc/pic32mx/4.8.3/../../../../pic32mx/lib/software-debug-break.o
                0x9d00b900                __exception_handler_break

.text.xTaskGetTickCount
                0x9d00b90c        0xc
 .text.xTaskGetTickCount
                0x9d00b90c        0xc build/default/debug/_ext/1458882252/tasks.o
                0x9d00b90c                xTaskGetTickCount

.text.SYS_CLK_SystemFrequencyGet
                0x9d00b918        0xc
 .text.SYS_CLK_SystemFrequencyGet
                0x9d00b918        0xc build/default/debug/_ext/639803181/sys_clk_static.o
                0x9d00b918                SYS_CLK_SystemFrequencyGet

.text.APPIO_DEBUG._appio_init
                0x9d00b924        0xc
 .text.APPIO_DEBUG._appio_init
                0x9d00b924        0xc /home/john/MPLAB-X/XC32_Compiler/bin/bin/../../lib/gcc/pic32mx/4.8.3/../../../../pic32mx/lib/libdebug.a(appio.o)
                0x9d00b924                _appio_init

.rodata         0x9d00b930        0x8
 .rodata        0x9d00b930        0x8 build/default/debug/_ext/1360937237/app.o

.text.SYS_DEBUG_ErrorLevelGet
                0x9d00b938        0x8
 .text.SYS_DEBUG_ErrorLevelGet
                0x9d00b938        0x8 build/default/debug/_ext/1952159421/sys_debug.o
                0x9d00b938                SYS_DEBUG_ErrorLevelGet

.text.SYS_DEVCON_Tasks
                0x9d00b940        0x8
 .text.SYS_DEVCON_Tasks
                0x9d00b940        0x8 build/default/debug/_ext/1921105363/sys_devcon.o
                0x9d00b940                SYS_DEVCON_Tasks

.text.vListInitialiseItem
                0x9d00b948        0x8
 .text.vListInitialiseItem
                0x9d00b948        0x8 build/default/debug/_ext/1458882252/list.o
                0x9d00b948                vListInitialiseItem

.rodata         0x9d00b950       0x10
 .rodata        0x9d00b950        0x8 build/default/debug/_ext/1458882252/tasks.o
 .rodata        0x9d00b958        0x8 build/default/debug/_ext/1458882252/timers.o

.text.vPortFree
                0x9d00b960        0x8
 .text.vPortFree
                0x9d00b960        0x8 build/default/debug/_ext/628943767/heap_1.o
                0x9d00b960                vPortFree

.text._on_reset
                0x9d00b968        0x8
 .text._on_reset
                0x9d00b968        0x8 /home/john/MPLAB-X/XC32_Compiler/bin/bin/../../lib/gcc/pic32mx/4.8.3/../../../../pic32mx/lib/libpic32.a(default-on-reset.o)
                0x9d00b968                _on_reset

.text._on_bootstrap
                0x9d00b970        0x8
 .text._on_bootstrap
                0x9d00b970        0x8 /home/john/MPLAB-X/XC32_Compiler/bin/bin/../../lib/gcc/pic32mx/4.8.3/../../../../pic32mx/lib/libpic32.a(default-on-bootstrap.o)
                0x9d00b970                _on_bootstrap

.rodata         0x9d008b94        0x4
 .rodata        0x9d008b94        0x4 build/default/debug/_ext/207392127/sys_console_appio.o

.rodata         0x9d00922c        0x4
 .rodata        0x9d00922c        0x4 build/default/debug/_ext/1338673686/port.o
                0x9d00922c                xISRStackTop
